

Microchip MPLAB XC8 Assembler V3.00 build 20241204225717 
                                                                                               Mon Feb 24 18:47:01 2025

Microchip MPLAB XC8 C Compiler v3.00 (Free license) build 20241204225717 Og1 
     1                           	processor	16F877A
     2                           	pagewidth 120
     3                           	opt	flic
     4                           	psect	idataCOMMON,global,class=CODE,space=0,delta=2,noexec
     5                           	psect	idataBANK0,global,class=CODE,space=0,delta=2,noexec
     6                           	psect	strings,global,class=STRING,space=0,delta=2,noexec
     7                           	psect	cinit,global,class=CODE,space=0,merge=1,delta=2
     8                           	psect	bssCOMMON,global,class=COMMON,space=1,delta=1,noexec
     9                           	psect	dataCOMMON,global,class=COMMON,space=1,delta=1,noexec
    10                           	psect	bssBANK0,global,class=BANK0,space=1,delta=1,noexec
    11                           	psect	dataBANK0,global,class=BANK0,space=1,delta=1,noexec
    12                           	psect	cstackCOMMON,global,class=COMMON,space=1,delta=1,noexec
    13                           	psect	cstackBANK0,global,class=BANK0,space=1,delta=1,noexec
    14                           	psect	maintext,global,class=CODE,space=0,split=1,delta=2
    15                           	psect	text1,local,class=CODE,space=0,merge=1,delta=2
    16                           	psect	text2,local,class=CODE,space=0,merge=1,delta=2
    17                           	psect	text3,local,class=CODE,space=0,merge=1,delta=2,group=1
    18                           	psect	text4,local,class=CODE,space=0,merge=1,delta=2,group=1
    19                           	psect	text5,local,class=CODE,space=0,merge=1,delta=2,group=1
    20                           	psect	text6,local,class=CODE,space=0,merge=1,delta=2
    21                           	psect	text7,local,class=CODE,space=0,merge=1,delta=2
    22                           	psect	text8,local,class=CODE,space=0,merge=1,delta=2,group=1
    23                           	psect	text9,local,class=CODE,space=0,merge=1,delta=2,group=1
    24                           	psect	text10,local,class=CODE,space=0,merge=1,delta=2,group=1
    25                           	psect	text11,local,class=CODE,space=0,merge=1,delta=2
    26                           	psect	text12,local,class=CODE,space=0,merge=1,delta=2
    27                           	psect	text13,local,class=CODE,space=0,merge=1,delta=2
    28                           	psect	text14,local,class=CODE,space=0,merge=1,delta=2
    29                           	psect	text15,local,class=CODE,space=0,merge=1,delta=2
    30                           	psect	text16,local,class=CODE,space=0,merge=1,delta=2
    31                           	psect	text17,local,class=CODE,space=0,merge=1,delta=2
    32                           	psect	text18,local,class=CODE,space=0,merge=1,delta=2
    33                           	psect	text19,local,class=CODE,space=0,merge=1,delta=2
    34                           	psect	text20,local,class=CODE,space=0,merge=1,delta=2
    35                           	psect	text21,local,class=CODE,space=0,merge=1,delta=2
    36                           	psect	text22,local,class=CODE,space=0,merge=1,delta=2
    37                           	psect	text23,local,class=CODE,space=0,merge=1,delta=2
    38                           	psect	text24,local,class=CODE,space=0,merge=1,delta=2
    39                           	psect	intentry,global,class=CODE,space=0,delta=2
    40                           	dabs	1,0x7E,2
    41     0000                     
    42                           ; Generated 12/10/2023 GMT
    43                           ; 
    44                           ; Copyright © 2023, Microchip Technology Inc. and its subsidiaries ("Microchip")
    45                           ; All rights reserved.
    46                           ; 
    47                           ; This software is developed by Microchip Technology Inc. and its subsidiaries ("Microch
      +                          ip").
    48                           ; 
    49                           ; Redistribution and use in source and binary forms, with or without modification, are
    50                           ; permitted provided that the following conditions are met:
    51                           ; 
    52                           ;     1. Redistributions of source code must retain the above copyright notice, this lis
      +                          t of
    53                           ;        conditions and the following disclaimer.
    54                           ; 
    55                           ;     2. Redistributions in binary form must reproduce the above copyright notice, this 
      +                          list
    56                           ;        of conditions and the following disclaimer in the documentation and/or other
    57                           ;        materials provided with the distribution. Publication is not required when
    58                           ;        this file is used in an embedded application.
    59                           ; 
    60                           ;     3. Microchip's name may not be used to endorse or promote products derived from th
      +                          is
    61                           ;        software without specific prior written permission.
    62                           ; 
    63                           ; THIS SOFTWARE IS PROVIDED BY MICROCHIP "AS IS" AND ANY EXPRESS OR IMPLIED WARRANTIES,
    64                           ; INCLUDING, BUT NOT LIMITED TO, THE IMPLIED WARRANTIES OF MERCHANTABILITY AND FITNESS F
      +                          OR
    65                           ; PURPOSE ARE DISCLAIMED.  IN NO EVENT SHALL MICROCHIP BE LIABLE FOR ANY DIRECT, INDIREC
      +                          T,
    66                           ; INCIDENTAL, SPECIAL, EXEMPLARY, OR CONSEQUENTIAL DAMAGES (INCLUDING BUT NOT LIMITED TO
    67                           ; PROCUREMENT OF SUBSTITUTE GOODS OR SERVICES; LOSS OF USE, DATA OR PROFITS; OR BUSINESS
    68                           ; INTERRUPTION) HOWSOEVER CAUSED AND ON ANY THEORY OF LIABILITY, WHETHER IN CONTRACT, ST
      +                          RICT
    69                           ; LIABILITY, OR TORT (INCLUDING NEGLIGENCE OR OTHERWISE) ARISING IN ANY WAY OUT OF THE U
      +                          SE OF
    70                           ; THIS SOFTWARE, EVEN IF ADVISED OF THE POSSIBILITY OF SUCH DAMAGE.
    71                           ; 
    72                           ; 
    73                           ; Code-generator required, PIC16F877A Definitions
    74                           ; 
    75                           ; SFR Addresses
    76     0004                     fsr             equ	4
    77     0004                     fsr0            equ	4
    78     0000                     indf            equ	0
    79     0000                     indf0           equ	0
    80     0002                     pc              equ	2
    81     0002                     pcl             equ	2
    82     000A                     pclath          equ	10
    83     0003                     status          equ	3
    84     0000                     INDF            equ	0	;# 
    85     0001                     TMR0            equ	1	;# 
    86     0002                     PCL             equ	2	;# 
    87     0003                     STATUS          equ	3	;# 
    88     0004                     FSR             equ	4	;# 
    89     0005                     PORTA           equ	5	;# 
    90     0006                     PORTB           equ	6	;# 
    91     0007                     PORTC           equ	7	;# 
    92     0008                     PORTD           equ	8	;# 
    93     0009                     PORTE           equ	9	;# 
    94     000A                     PCLATH          equ	10	;# 
    95     000B                     INTCON          equ	11	;# 
    96     000C                     PIR1            equ	12	;# 
    97     000D                     PIR2            equ	13	;# 
    98     000E                     TMR1            equ	14	;# 
    99     000E                     TMR1L           equ	14	;# 
   100     000F                     TMR1H           equ	15	;# 
   101     0010                     T1CON           equ	16	;# 
   102     0011                     TMR2            equ	17	;# 
   103     0012                     T2CON           equ	18	;# 
   104     0013                     SSPBUF          equ	19	;# 
   105     0014                     SSPCON          equ	20	;# 
   106     0015                     CCPR1           equ	21	;# 
   107     0015                     CCPR1L          equ	21	;# 
   108     0016                     CCPR1H          equ	22	;# 
   109     0017                     CCP1CON         equ	23	;# 
   110     0018                     RCSTA           equ	24	;# 
   111     0019                     TXREG           equ	25	;# 
   112     001A                     RCREG           equ	26	;# 
   113     001B                     CCPR2           equ	27	;# 
   114     001B                     CCPR2L          equ	27	;# 
   115     001C                     CCPR2H          equ	28	;# 
   116     001D                     CCP2CON         equ	29	;# 
   117     001E                     ADRESH          equ	30	;# 
   118     001F                     ADCON0          equ	31	;# 
   119     0081                     OPTION_REG      equ	129	;# 
   120     0085                     TRISA           equ	133	;# 
   121     0086                     TRISB           equ	134	;# 
   122     0087                     TRISC           equ	135	;# 
   123     0088                     TRISD           equ	136	;# 
   124     0089                     TRISE           equ	137	;# 
   125     008C                     PIE1            equ	140	;# 
   126     008D                     PIE2            equ	141	;# 
   127     008E                     PCON            equ	142	;# 
   128     0091                     SSPCON2         equ	145	;# 
   129     0092                     PR2             equ	146	;# 
   130     0093                     SSPADD          equ	147	;# 
   131     0094                     SSPSTAT         equ	148	;# 
   132     0098                     TXSTA           equ	152	;# 
   133     0099                     SPBRG           equ	153	;# 
   134     009C                     CMCON           equ	156	;# 
   135     009D                     CVRCON          equ	157	;# 
   136     009E                     ADRESL          equ	158	;# 
   137     009F                     ADCON1          equ	159	;# 
   138     010C                     EEDATA          equ	268	;# 
   139     010D                     EEADR           equ	269	;# 
   140     010E                     EEDATH          equ	270	;# 
   141     010F                     EEADRH          equ	271	;# 
   142     018C                     EECON1          equ	396	;# 
   143     018D                     EECON2          equ	397	;# 
   144     0000                     INDF            equ	0	;# 
   145     0001                     TMR0            equ	1	;# 
   146     0002                     PCL             equ	2	;# 
   147     0003                     STATUS          equ	3	;# 
   148     0004                     FSR             equ	4	;# 
   149     0005                     PORTA           equ	5	;# 
   150     0006                     PORTB           equ	6	;# 
   151     0007                     PORTC           equ	7	;# 
   152     0008                     PORTD           equ	8	;# 
   153     0009                     PORTE           equ	9	;# 
   154     000A                     PCLATH          equ	10	;# 
   155     000B                     INTCON          equ	11	;# 
   156     000C                     PIR1            equ	12	;# 
   157     000D                     PIR2            equ	13	;# 
   158     000E                     TMR1            equ	14	;# 
   159     000E                     TMR1L           equ	14	;# 
   160     000F                     TMR1H           equ	15	;# 
   161     0010                     T1CON           equ	16	;# 
   162     0011                     TMR2            equ	17	;# 
   163     0012                     T2CON           equ	18	;# 
   164     0013                     SSPBUF          equ	19	;# 
   165     0014                     SSPCON          equ	20	;# 
   166     0015                     CCPR1           equ	21	;# 
   167     0015                     CCPR1L          equ	21	;# 
   168     0016                     CCPR1H          equ	22	;# 
   169     0017                     CCP1CON         equ	23	;# 
   170     0018                     RCSTA           equ	24	;# 
   171     0019                     TXREG           equ	25	;# 
   172     001A                     RCREG           equ	26	;# 
   173     001B                     CCPR2           equ	27	;# 
   174     001B                     CCPR2L          equ	27	;# 
   175     001C                     CCPR2H          equ	28	;# 
   176     001D                     CCP2CON         equ	29	;# 
   177     001E                     ADRESH          equ	30	;# 
   178     001F                     ADCON0          equ	31	;# 
   179     0081                     OPTION_REG      equ	129	;# 
   180     0085                     TRISA           equ	133	;# 
   181     0086                     TRISB           equ	134	;# 
   182     0087                     TRISC           equ	135	;# 
   183     0088                     TRISD           equ	136	;# 
   184     0089                     TRISE           equ	137	;# 
   185     008C                     PIE1            equ	140	;# 
   186     008D                     PIE2            equ	141	;# 
   187     008E                     PCON            equ	142	;# 
   188     0091                     SSPCON2         equ	145	;# 
   189     0092                     PR2             equ	146	;# 
   190     0093                     SSPADD          equ	147	;# 
   191     0094                     SSPSTAT         equ	148	;# 
   192     0098                     TXSTA           equ	152	;# 
   193     0099                     SPBRG           equ	153	;# 
   194     009C                     CMCON           equ	156	;# 
   195     009D                     CVRCON          equ	157	;# 
   196     009E                     ADRESL          equ	158	;# 
   197     009F                     ADCON1          equ	159	;# 
   198     010C                     EEDATA          equ	268	;# 
   199     010D                     EEADR           equ	269	;# 
   200     010E                     EEDATH          equ	270	;# 
   201     010F                     EEADRH          equ	271	;# 
   202     018C                     EECON1          equ	396	;# 
   203     018D                     EECON2          equ	397	;# 
   204     0000                     INDF            equ	0	;# 
   205     0001                     TMR0            equ	1	;# 
   206     0002                     PCL             equ	2	;# 
   207     0003                     STATUS          equ	3	;# 
   208     0004                     FSR             equ	4	;# 
   209     0005                     PORTA           equ	5	;# 
   210     0006                     PORTB           equ	6	;# 
   211     0007                     PORTC           equ	7	;# 
   212     0008                     PORTD           equ	8	;# 
   213     0009                     PORTE           equ	9	;# 
   214     000A                     PCLATH          equ	10	;# 
   215     000B                     INTCON          equ	11	;# 
   216     000C                     PIR1            equ	12	;# 
   217     000D                     PIR2            equ	13	;# 
   218     000E                     TMR1            equ	14	;# 
   219     000E                     TMR1L           equ	14	;# 
   220     000F                     TMR1H           equ	15	;# 
   221     0010                     T1CON           equ	16	;# 
   222     0011                     TMR2            equ	17	;# 
   223     0012                     T2CON           equ	18	;# 
   224     0013                     SSPBUF          equ	19	;# 
   225     0014                     SSPCON          equ	20	;# 
   226     0015                     CCPR1           equ	21	;# 
   227     0015                     CCPR1L          equ	21	;# 
   228     0016                     CCPR1H          equ	22	;# 
   229     0017                     CCP1CON         equ	23	;# 
   230     0018                     RCSTA           equ	24	;# 
   231     0019                     TXREG           equ	25	;# 
   232     001A                     RCREG           equ	26	;# 
   233     001B                     CCPR2           equ	27	;# 
   234     001B                     CCPR2L          equ	27	;# 
   235     001C                     CCPR2H          equ	28	;# 
   236     001D                     CCP2CON         equ	29	;# 
   237     001E                     ADRESH          equ	30	;# 
   238     001F                     ADCON0          equ	31	;# 
   239     0081                     OPTION_REG      equ	129	;# 
   240     0085                     TRISA           equ	133	;# 
   241     0086                     TRISB           equ	134	;# 
   242     0087                     TRISC           equ	135	;# 
   243     0088                     TRISD           equ	136	;# 
   244     0089                     TRISE           equ	137	;# 
   245     008C                     PIE1            equ	140	;# 
   246     008D                     PIE2            equ	141	;# 
   247     008E                     PCON            equ	142	;# 
   248     0091                     SSPCON2         equ	145	;# 
   249     0092                     PR2             equ	146	;# 
   250     0093                     SSPADD          equ	147	;# 
   251     0094                     SSPSTAT         equ	148	;# 
   252     0098                     TXSTA           equ	152	;# 
   253     0099                     SPBRG           equ	153	;# 
   254     009C                     CMCON           equ	156	;# 
   255     009D                     CVRCON          equ	157	;# 
   256     009E                     ADRESL          equ	158	;# 
   257     009F                     ADCON1          equ	159	;# 
   258     010C                     EEDATA          equ	268	;# 
   259     010D                     EEADR           equ	269	;# 
   260     010E                     EEDATH          equ	270	;# 
   261     010F                     EEADRH          equ	271	;# 
   262     018C                     EECON1          equ	396	;# 
   263     018D                     EECON2          equ	397	;# 
   264     0000                     INDF            equ	0	;# 
   265     0001                     TMR0            equ	1	;# 
   266     0002                     PCL             equ	2	;# 
   267     0003                     STATUS          equ	3	;# 
   268     0004                     FSR             equ	4	;# 
   269     0005                     PORTA           equ	5	;# 
   270     0006                     PORTB           equ	6	;# 
   271     0007                     PORTC           equ	7	;# 
   272     0008                     PORTD           equ	8	;# 
   273     0009                     PORTE           equ	9	;# 
   274     000A                     PCLATH          equ	10	;# 
   275     000B                     INTCON          equ	11	;# 
   276     000C                     PIR1            equ	12	;# 
   277     000D                     PIR2            equ	13	;# 
   278     000E                     TMR1            equ	14	;# 
   279     000E                     TMR1L           equ	14	;# 
   280     000F                     TMR1H           equ	15	;# 
   281     0010                     T1CON           equ	16	;# 
   282     0011                     TMR2            equ	17	;# 
   283     0012                     T2CON           equ	18	;# 
   284     0013                     SSPBUF          equ	19	;# 
   285     0014                     SSPCON          equ	20	;# 
   286     0015                     CCPR1           equ	21	;# 
   287     0015                     CCPR1L          equ	21	;# 
   288     0016                     CCPR1H          equ	22	;# 
   289     0017                     CCP1CON         equ	23	;# 
   290     0018                     RCSTA           equ	24	;# 
   291     0019                     TXREG           equ	25	;# 
   292     001A                     RCREG           equ	26	;# 
   293     001B                     CCPR2           equ	27	;# 
   294     001B                     CCPR2L          equ	27	;# 
   295     001C                     CCPR2H          equ	28	;# 
   296     001D                     CCP2CON         equ	29	;# 
   297     001E                     ADRESH          equ	30	;# 
   298     001F                     ADCON0          equ	31	;# 
   299     0081                     OPTION_REG      equ	129	;# 
   300     0085                     TRISA           equ	133	;# 
   301     0086                     TRISB           equ	134	;# 
   302     0087                     TRISC           equ	135	;# 
   303     0088                     TRISD           equ	136	;# 
   304     0089                     TRISE           equ	137	;# 
   305     008C                     PIE1            equ	140	;# 
   306     008D                     PIE2            equ	141	;# 
   307     008E                     PCON            equ	142	;# 
   308     0091                     SSPCON2         equ	145	;# 
   309     0092                     PR2             equ	146	;# 
   310     0093                     SSPADD          equ	147	;# 
   311     0094                     SSPSTAT         equ	148	;# 
   312     0098                     TXSTA           equ	152	;# 
   313     0099                     SPBRG           equ	153	;# 
   314     009C                     CMCON           equ	156	;# 
   315     009D                     CVRCON          equ	157	;# 
   316     009E                     ADRESL          equ	158	;# 
   317     009F                     ADCON1          equ	159	;# 
   318     010C                     EEDATA          equ	268	;# 
   319     010D                     EEADR           equ	269	;# 
   320     010E                     EEDATH          equ	270	;# 
   321     010F                     EEADRH          equ	271	;# 
   322     018C                     EECON1          equ	396	;# 
   323     018D                     EECON2          equ	397	;# 
   324     0000                     INDF            equ	0	;# 
   325     0001                     TMR0            equ	1	;# 
   326     0002                     PCL             equ	2	;# 
   327     0003                     STATUS          equ	3	;# 
   328     0004                     FSR             equ	4	;# 
   329     0005                     PORTA           equ	5	;# 
   330     0006                     PORTB           equ	6	;# 
   331     0007                     PORTC           equ	7	;# 
   332     0008                     PORTD           equ	8	;# 
   333     0009                     PORTE           equ	9	;# 
   334     000A                     PCLATH          equ	10	;# 
   335     000B                     INTCON          equ	11	;# 
   336     000C                     PIR1            equ	12	;# 
   337     000D                     PIR2            equ	13	;# 
   338     000E                     TMR1            equ	14	;# 
   339     000E                     TMR1L           equ	14	;# 
   340     000F                     TMR1H           equ	15	;# 
   341     0010                     T1CON           equ	16	;# 
   342     0011                     TMR2            equ	17	;# 
   343     0012                     T2CON           equ	18	;# 
   344     0013                     SSPBUF          equ	19	;# 
   345     0014                     SSPCON          equ	20	;# 
   346     0015                     CCPR1           equ	21	;# 
   347     0015                     CCPR1L          equ	21	;# 
   348     0016                     CCPR1H          equ	22	;# 
   349     0017                     CCP1CON         equ	23	;# 
   350     0018                     RCSTA           equ	24	;# 
   351     0019                     TXREG           equ	25	;# 
   352     001A                     RCREG           equ	26	;# 
   353     001B                     CCPR2           equ	27	;# 
   354     001B                     CCPR2L          equ	27	;# 
   355     001C                     CCPR2H          equ	28	;# 
   356     001D                     CCP2CON         equ	29	;# 
   357     001E                     ADRESH          equ	30	;# 
   358     001F                     ADCON0          equ	31	;# 
   359     0081                     OPTION_REG      equ	129	;# 
   360     0085                     TRISA           equ	133	;# 
   361     0086                     TRISB           equ	134	;# 
   362     0087                     TRISC           equ	135	;# 
   363     0088                     TRISD           equ	136	;# 
   364     0089                     TRISE           equ	137	;# 
   365     008C                     PIE1            equ	140	;# 
   366     008D                     PIE2            equ	141	;# 
   367     008E                     PCON            equ	142	;# 
   368     0091                     SSPCON2         equ	145	;# 
   369     0092                     PR2             equ	146	;# 
   370     0093                     SSPADD          equ	147	;# 
   371     0094                     SSPSTAT         equ	148	;# 
   372     0098                     TXSTA           equ	152	;# 
   373     0099                     SPBRG           equ	153	;# 
   374     009C                     CMCON           equ	156	;# 
   375     009D                     CVRCON          equ	157	;# 
   376     009E                     ADRESL          equ	158	;# 
   377     009F                     ADCON1          equ	159	;# 
   378     010C                     EEDATA          equ	268	;# 
   379     010D                     EEADR           equ	269	;# 
   380     010E                     EEDATH          equ	270	;# 
   381     010F                     EEADRH          equ	271	;# 
   382     018C                     EECON1          equ	396	;# 
   383     018D                     EECON2          equ	397	;# 
   384     0000                     INDF            equ	0	;# 
   385     0001                     TMR0            equ	1	;# 
   386     0002                     PCL             equ	2	;# 
   387     0003                     STATUS          equ	3	;# 
   388     0004                     FSR             equ	4	;# 
   389     0005                     PORTA           equ	5	;# 
   390     0006                     PORTB           equ	6	;# 
   391     0007                     PORTC           equ	7	;# 
   392     0008                     PORTD           equ	8	;# 
   393     0009                     PORTE           equ	9	;# 
   394     000A                     PCLATH          equ	10	;# 
   395     000B                     INTCON          equ	11	;# 
   396     000C                     PIR1            equ	12	;# 
   397     000D                     PIR2            equ	13	;# 
   398     000E                     TMR1            equ	14	;# 
   399     000E                     TMR1L           equ	14	;# 
   400     000F                     TMR1H           equ	15	;# 
   401     0010                     T1CON           equ	16	;# 
   402     0011                     TMR2            equ	17	;# 
   403     0012                     T2CON           equ	18	;# 
   404     0013                     SSPBUF          equ	19	;# 
   405     0014                     SSPCON          equ	20	;# 
   406     0015                     CCPR1           equ	21	;# 
   407     0015                     CCPR1L          equ	21	;# 
   408     0016                     CCPR1H          equ	22	;# 
   409     0017                     CCP1CON         equ	23	;# 
   410     0018                     RCSTA           equ	24	;# 
   411     0019                     TXREG           equ	25	;# 
   412     001A                     RCREG           equ	26	;# 
   413     001B                     CCPR2           equ	27	;# 
   414     001B                     CCPR2L          equ	27	;# 
   415     001C                     CCPR2H          equ	28	;# 
   416     001D                     CCP2CON         equ	29	;# 
   417     001E                     ADRESH          equ	30	;# 
   418     001F                     ADCON0          equ	31	;# 
   419     0081                     OPTION_REG      equ	129	;# 
   420     0085                     TRISA           equ	133	;# 
   421     0086                     TRISB           equ	134	;# 
   422     0087                     TRISC           equ	135	;# 
   423     0088                     TRISD           equ	136	;# 
   424     0089                     TRISE           equ	137	;# 
   425     008C                     PIE1            equ	140	;# 
   426     008D                     PIE2            equ	141	;# 
   427     008E                     PCON            equ	142	;# 
   428     0091                     SSPCON2         equ	145	;# 
   429     0092                     PR2             equ	146	;# 
   430     0093                     SSPADD          equ	147	;# 
   431     0094                     SSPSTAT         equ	148	;# 
   432     0098                     TXSTA           equ	152	;# 
   433     0099                     SPBRG           equ	153	;# 
   434     009C                     CMCON           equ	156	;# 
   435     009D                     CVRCON          equ	157	;# 
   436     009E                     ADRESL          equ	158	;# 
   437     009F                     ADCON1          equ	159	;# 
   438     010C                     EEDATA          equ	268	;# 
   439     010D                     EEADR           equ	269	;# 
   440     010E                     EEDATH          equ	270	;# 
   441     010F                     EEADRH          equ	271	;# 
   442     018C                     EECON1          equ	396	;# 
   443     018D                     EECON2          equ	397	;# 
   444     0000                     INDF            equ	0	;# 
   445     0001                     TMR0            equ	1	;# 
   446     0002                     PCL             equ	2	;# 
   447     0003                     STATUS          equ	3	;# 
   448     0004                     FSR             equ	4	;# 
   449     0005                     PORTA           equ	5	;# 
   450     0006                     PORTB           equ	6	;# 
   451     0007                     PORTC           equ	7	;# 
   452     0008                     PORTD           equ	8	;# 
   453     0009                     PORTE           equ	9	;# 
   454     000A                     PCLATH          equ	10	;# 
   455     000B                     INTCON          equ	11	;# 
   456     000C                     PIR1            equ	12	;# 
   457     000D                     PIR2            equ	13	;# 
   458     000E                     TMR1            equ	14	;# 
   459     000E                     TMR1L           equ	14	;# 
   460     000F                     TMR1H           equ	15	;# 
   461     0010                     T1CON           equ	16	;# 
   462     0011                     TMR2            equ	17	;# 
   463     0012                     T2CON           equ	18	;# 
   464     0013                     SSPBUF          equ	19	;# 
   465     0014                     SSPCON          equ	20	;# 
   466     0015                     CCPR1           equ	21	;# 
   467     0015                     CCPR1L          equ	21	;# 
   468     0016                     CCPR1H          equ	22	;# 
   469     0017                     CCP1CON         equ	23	;# 
   470     0018                     RCSTA           equ	24	;# 
   471     0019                     TXREG           equ	25	;# 
   472     001A                     RCREG           equ	26	;# 
   473     001B                     CCPR2           equ	27	;# 
   474     001B                     CCPR2L          equ	27	;# 
   475     001C                     CCPR2H          equ	28	;# 
   476     001D                     CCP2CON         equ	29	;# 
   477     001E                     ADRESH          equ	30	;# 
   478     001F                     ADCON0          equ	31	;# 
   479     0081                     OPTION_REG      equ	129	;# 
   480     0085                     TRISA           equ	133	;# 
   481     0086                     TRISB           equ	134	;# 
   482     0087                     TRISC           equ	135	;# 
   483     0088                     TRISD           equ	136	;# 
   484     0089                     TRISE           equ	137	;# 
   485     008C                     PIE1            equ	140	;# 
   486     008D                     PIE2            equ	141	;# 
   487     008E                     PCON            equ	142	;# 
   488     0091                     SSPCON2         equ	145	;# 
   489     0092                     PR2             equ	146	;# 
   490     0093                     SSPADD          equ	147	;# 
   491     0094                     SSPSTAT         equ	148	;# 
   492     0098                     TXSTA           equ	152	;# 
   493     0099                     SPBRG           equ	153	;# 
   494     009C                     CMCON           equ	156	;# 
   495     009D                     CVRCON          equ	157	;# 
   496     009E                     ADRESL          equ	158	;# 
   497     009F                     ADCON1          equ	159	;# 
   498     010C                     EEDATA          equ	268	;# 
   499     010D                     EEADR           equ	269	;# 
   500     010E                     EEDATH          equ	270	;# 
   501     010F                     EEADRH          equ	271	;# 
   502     018C                     EECON1          equ	396	;# 
   503     018D                     EECON2          equ	397	;# 
   504                           
   505                           	psect	idataCOMMON
   506     07FA                     __pidataCOMMON:
   507                           
   508                           ;initializer for read_matrix_keypad@once
   509     07FA  3401               	retlw	1
   510                           
   511                           	psect	idataBANK0
   512     07FB                     __pidataBANK0:
   513                           
   514                           ;initializer for _operational_flag
   515     07FB  3401               	retlw	1
   516     0008                     _PORTD          set	8
   517     0061                     _TMR2IF         set	97
   518     0090                     _T2CKPS0        set	144
   519     0091                     _T2CKPS1        set	145
   520     0094                     _TOUTPS1        set	148
   521     0095                     _TOUTPS2        set	149
   522     0096                     _TOUTPS3        set	150
   523     005F                     _GIE            set	95
   524     005E                     _PEIE           set	94
   525     0049                     _RE1            set	73
   526     004A                     _RE2            set	74
   527     0032                     _RB2            set	50
   528     0031                     _RB1            set	49
   529     0030                     _RB0            set	48
   530     0040                     _RD0            set	64
   531     0041                     _RD1            set	65
   532     0042                     _RD2            set	66
   533     0043                     _RD3            set	67
   534     0039                     _RC1            set	57
   535     0092                     _TMR2ON         set	146
   536     003A                     _RC2            set	58
   537     0092                     _PR2            set	146
   538     0088                     _TRISD          set	136
   539     0086                     _TRISB          set	134
   540     0461                     _TMR2IE         set	1121
   541     0439                     _TRISC1         set	1081
   542     043A                     _TRISC2         set	1082
   543     0449                     _TRISE1         set	1097
   544     044A                     _TRISE2         set	1098
   545     040F                     _nRBPU          set	1039
   546                           
   547                           	psect	strings
   548     0500                     __pstrings:
   549     0500                     stringtab:
   550     0500                     __stringtab:
   551     0500                     stringcode:	
   552                           ;	String table - string pointers are 1 byte each
   553                           
   554     0500                     stringdir:
   555     0500  3005               	movlw	high stringdir
   556     0501  008A               	movwf	10
   557     0502  0804               	movf	4,w
   558     0503  0A84               	incf	4,f
   559     0504  0782               	addwf	2,f
   560     0505                     __stringbase:
   561     0505  3400               	retlw	0
   562     0506                     __end_of__stringtab:
   563     0506                     STR_9:
   564     0506  342A               	retlw	42	;'*'
   565     0507  343A               	retlw	58	;':'
   566     0508  3443               	retlw	67	;'C'
   567     0509  344C               	retlw	76	;'L'
   568     050A  3445               	retlw	69	;'E'
   569     050B  3441               	retlw	65	;'A'
   570     050C  3452               	retlw	82	;'R'
   571     050D  3420               	retlw	32	;' '
   572     050E  3420               	retlw	32	;' '
   573     050F  3423               	retlw	35	;'#'
   574     0510  343A               	retlw	58	;':'
   575     0511  3445               	retlw	69	;'E'
   576     0512  344E               	retlw	78	;'N'
   577     0513  3454               	retlw	84	;'T'
   578     0514  3445               	retlw	69	;'E'
   579     0515  3452               	retlw	82	;'R'
   580     0516  3400               	retlw	0
   581     0517                     STR_7:
   582     0517  3453               	retlw	83	;'S'
   583     0518  3445               	retlw	69	;'E'
   584     0519  3454               	retlw	84	;'T'
   585     051A  3420               	retlw	32	;' '
   586     051B  3454               	retlw	84	;'T'
   587     051C  3449               	retlw	73	;'I'
   588     051D  344D               	retlw	77	;'M'
   589     051E  3445               	retlw	69	;'E'
   590     051F  3420               	retlw	32	;' '
   591     0520  3428               	retlw	40	;'('
   592     0521  344D               	retlw	77	;'M'
   593     0522  344D               	retlw	77	;'M'
   594     0523  343A               	retlw	58	;':'
   595     0524  3453               	retlw	83	;'S'
   596     0525  3453               	retlw	83	;'S'
   597     0526  3400               	retlw	0
   598     0527                     STR_15:
   599     0527  3445               	retlw	69	;'E'
   600     0528  346E               	retlw	110	;'n'
   601     0529  346A               	retlw	106	;'j'
   602     052A  346F               	retlw	111	;'o'
   603     052B  3479               	retlw	121	;'y'
   604     052C  3420               	retlw	32	;' '
   605     052D  3479               	retlw	121	;'y'
   606     052E  346F               	retlw	111	;'o'
   607     052F  3475               	retlw	117	;'u'
   608     0530  3472               	retlw	114	;'r'
   609     0531  3420               	retlw	32	;' '
   610     0532  346D               	retlw	109	;'m'
   611     0533  3465               	retlw	101	;'e'
   612     0534  3461               	retlw	97	;'a'
   613     0535  346C               	retlw	108	;'l'
   614     0536  3400               	retlw	0
   615     0537                     STR_11:
   616     0537  3434               	retlw	52	;'4'
   617     0538  342E               	retlw	46	;'.'
   618     0539  3453               	retlw	83	;'S'
   619     053A  3454               	retlw	84	;'T'
   620     053B  3441               	retlw	65	;'A'
   621     053C  3452               	retlw	82	;'R'
   622     053D  3454               	retlw	84	;'T'
   623     053E  342F               	retlw	47	;'/'
   624     053F  3452               	retlw	82	;'R'
   625     0540  3445               	retlw	69	;'E'
   626     0541  3453               	retlw	83	;'S'
   627     0542  3455               	retlw	85	;'U'
   628     0543  344D               	retlw	77	;'M'
   629     0544  3445               	retlw	69	;'E'
   630     0545  3400               	retlw	0
   631     0546                     STR_2:
   632     0546  344D               	retlw	77	;'M'
   633     0547  3469               	retlw	105	;'i'
   634     0548  3463               	retlw	99	;'c'
   635     0549  3472               	retlw	114	;'r'
   636     054A  346F               	retlw	111	;'o'
   637     054B  3477               	retlw	119	;'w'
   638     054C  3461               	retlw	97	;'a'
   639     054D  3476               	retlw	118	;'v'
   640     054E  3465               	retlw	101	;'e'
   641     054F  3420               	retlw	32	;' '
   642     0550  344F               	retlw	79	;'O'
   643     0551  3476               	retlw	118	;'v'
   644     0552  3465               	retlw	101	;'e'
   645     0553  346E               	retlw	110	;'n'
   646     0554  3400               	retlw	0
   647     0555                     STR_16:
   648     0555  3453               	retlw	83	;'S'
   649     0556  3445               	retlw	69	;'E'
   650     0557  3454               	retlw	84	;'T'
   651     0558  3420               	retlw	32	;' '
   652     0559  3454               	retlw	84	;'T'
   653     055A  3445               	retlw	69	;'E'
   654     055B  344D               	retlw	77	;'M'
   655     055C  3450               	retlw	80	;'P'
   656     055D  3420               	retlw	32	;' '
   657     055E  343C               	retlw	60	;'<'
   658     055F  342A               	retlw	42	;'*'
   659     0560  3443               	retlw	67	;'C'
   660     0561  343E               	retlw	62	;'>'
   661     0562  3400               	retlw	0
   662     0563                     STR_19:
   663     0563  3450               	retlw	80	;'P'
   664     0564  3472               	retlw	114	;'r'
   665     0565  3465               	retlw	101	;'e'
   666     0566  342D               	retlw	45	;'-'
   667     0567  3448               	retlw	72	;'H'
   668     0568  3465               	retlw	101	;'e'
   669     0569  3461               	retlw	97	;'a'
   670     056A  3474               	retlw	116	;'t'
   671     056B  3469               	retlw	105	;'i'
   672     056C  346E               	retlw	110	;'n'
   673     056D  3467               	retlw	103	;'g'
   674     056E  3420               	retlw	32	;' '
   675     056F  3400               	retlw	0
   676     0570                     STR_5:
   677     0570  3433               	retlw	51	;'3'
   678     0571  342E               	retlw	46	;'.'
   679     0572  3443               	retlw	67	;'C'
   680     0573  346F               	retlw	111	;'o'
   681     0574  346E               	retlw	110	;'n'
   682     0575  3476               	retlw	118	;'v'
   683     0576  3465               	retlw	101	;'e'
   684     0577  346E               	retlw	110	;'n'
   685     0578  3474               	retlw	116	;'t'
   686     0579  3469               	retlw	105	;'i'
   687     057A  346F               	retlw	111	;'o'
   688     057B  346E               	retlw	110	;'n'
   689     057C  3400               	retlw	0
   690     057D                     STR_1:
   691     057D  3450               	retlw	80	;'P'
   692     057E  346F               	retlw	111	;'o'
   693     057F  3477               	retlw	119	;'w'
   694     0580  3465               	retlw	101	;'e'
   695     0581  3472               	retlw	114	;'r'
   696     0582  3469               	retlw	105	;'i'
   697     0583  346E               	retlw	110	;'n'
   698     0584  3467               	retlw	103	;'g'
   699     0585  3420               	retlw	32	;' '
   700     0586  344F               	retlw	79	;'O'
   701     0587  344E               	retlw	78	;'N'
   702     0588  3400               	retlw	0
   703     0589                     STR_22:
   704     0589  3450               	retlw	80	;'P'
   705     058A  346F               	retlw	111	;'o'
   706     058B  3477               	retlw	119	;'w'
   707     058C  3465               	retlw	101	;'e'
   708     058D  3472               	retlw	114	;'r'
   709     058E  343D               	retlw	61	;'='
   710     058F  3439               	retlw	57	;'9'
   711     0590  3430               	retlw	48	;'0'
   712     0591  3430               	retlw	48	;'0'
   713     0592  3477               	retlw	119	;'w'
   714     0593  3400               	retlw	0
   715     0594                     STR_14:
   716     0594  3454               	retlw	84	;'T'
   717     0595  3449               	retlw	73	;'I'
   718     0596  344D               	retlw	77	;'M'
   719     0597  3445               	retlw	69	;'E'
   720     0598  3420               	retlw	32	;' '
   721     0599  3455               	retlw	85	;'U'
   722     059A  3450               	retlw	80	;'P'
   723     059B  3421               	retlw	33	;'!'
   724     059C  3421               	retlw	33	;'!'
   725     059D  3421               	retlw	33	;'!'
   726     059E  3400               	retlw	0
   727     059F                     STR_20:
   728     059F  3454               	retlw	84	;'T'
   729     05A0  3469               	retlw	105	;'i'
   730     05A1  346D               	retlw	109	;'m'
   731     05A2  3465               	retlw	101	;'e'
   732     05A3  3420               	retlw	32	;' '
   733     05A4  3452               	retlw	82	;'R'
   734     05A5  3465               	retlw	101	;'e'
   735     05A6  346D               	retlw	109	;'m'
   736     05A7  343A               	retlw	58	;':'
   737     05A8  3400               	retlw	0
   738     05A9                     STR_3:
   739     05A9  3431               	retlw	49	;'1'
   740     05AA  342E               	retlw	46	;'.'
   741     05AB  344D               	retlw	77	;'M'
   742     05AC  3469               	retlw	105	;'i'
   743     05AD  3463               	retlw	99	;'c'
   744     05AE  3472               	retlw	114	;'r'
   745     05AF  346F               	retlw	111	;'o'
   746     05B0  3420               	retlw	32	;' '
   747     05B1  3400               	retlw	0
   748     05B2                     STR_10:
   749     05B2  3454               	retlw	84	;'T'
   750     05B3  3449               	retlw	73	;'I'
   751     05B4  344D               	retlw	77	;'M'
   752     05B5  3445               	retlw	69	;'E'
   753     05B6  3420               	retlw	32	;' '
   754     05B7  343D               	retlw	61	;'='
   755     05B8  3420               	retlw	32	;' '
   756     05B9  3400               	retlw	0
   757     05BA                     STR_12:
   758     05BA  3435               	retlw	53	;'5'
   759     05BB  342E               	retlw	46	;'.'
   760     05BC  3450               	retlw	80	;'P'
   761     05BD  3441               	retlw	65	;'A'
   762     05BE  3455               	retlw	85	;'U'
   763     05BF  3453               	retlw	83	;'S'
   764     05C0  3445               	retlw	69	;'E'
   765     05C1  3400               	retlw	0
   766     05C2                     STR_4:
   767     05C2  3432               	retlw	50	;'2'
   768     05C3  342E               	retlw	46	;'.'
   769     05C4  3447               	retlw	71	;'G'
   770     05C5  3472               	retlw	114	;'r'
   771     05C6  3469               	retlw	105	;'i'
   772     05C7  346C               	retlw	108	;'l'
   773     05C8  346C               	retlw	108	;'l'
   774     05C9  3400               	retlw	0
   775     05CA                     STR_6:
   776     05CA  3434               	retlw	52	;'4'
   777     05CB  342E               	retlw	46	;'.'
   778     05CC  3453               	retlw	83	;'S'
   779     05CD  3474               	retlw	116	;'t'
   780     05CE  3461               	retlw	97	;'a'
   781     05CF  3472               	retlw	114	;'r'
   782     05D0  3474               	retlw	116	;'t'
   783     05D1  3400               	retlw	0
   784     05D2                     STR_8:
   785     05D2  3454               	retlw	84	;'T'
   786     05D3  3449               	retlw	73	;'I'
   787     05D4  344D               	retlw	77	;'M'
   788     05D5  3445               	retlw	69	;'E'
   789     05D6  3420               	retlw	32	;' '
   790     05D7  342D               	retlw	45	;'-'
   791     05D8  3400               	retlw	0
   792     05D9                     STR_17:
   793     05D9  3454               	retlw	84	;'T'
   794     05DA  3445               	retlw	69	;'E'
   795     05DB  344D               	retlw	77	;'M'
   796     05DC  3450               	retlw	80	;'P'
   797     05DD  3420               	retlw	32	;' '
   798     05DE  342D               	retlw	45	;'-'
   799     05DF  3400               	retlw	0
   800     05E0                     STR_13:
   801     05E0  3436               	retlw	54	;'6'
   802     05E1  342E               	retlw	46	;'.'
   803     05E2  3453               	retlw	83	;'S'
   804     05E3  3454               	retlw	84	;'T'
   805     05E4  344F               	retlw	79	;'O'
   806     05E5  3450               	retlw	80	;'P'
   807     05E6  3400               	retlw	0
   808     05E7                     STR_21:
   809     05E7  3473               	retlw	115	;'s'
   810     05E8  3465               	retlw	101	;'e'
   811     05E9  3463               	retlw	99	;'c'
   812     05EA  3400               	retlw	0
   813     0506                     STR_18          equ	STR_9
   814                           
   815                           	psect	cinit
   816     000F                     start_initialization:	
   817                           ; #config settings
   818                           
   819     000F                     __initialization:
   820                           
   821                           ; Initialize objects allocated to BANK0
   822     000F  120A  118A  27FB  120A  118A  	fcall	__pidataBANK0	;fetch initializer
   823     0014  00BB               	movwf	__pdataBANK0& (0+127)
   824                           
   825                           ; Initialize objects allocated to COMMON
   826     0015  120A  118A  27FA  120A  118A  	fcall	__pidataCOMMON	;fetch initializer
   827     001A  00FB               	movwf	__pdataCOMMON& (0+127)
   828                           
   829                           ; Clear objects allocated to BANK0
   830     001B  01B1               	clrf	__pbssBANK0& (0+127)
   831     001C  01B2               	clrf	(__pbssBANK0+1)& (0+127)
   832     001D  01B3               	clrf	(__pbssBANK0+2)& (0+127)
   833     001E  01B4               	clrf	(__pbssBANK0+3)& (0+127)
   834     001F  01B5               	clrf	(__pbssBANK0+4)& (0+127)
   835     0020  01B6               	clrf	(__pbssBANK0+5)& (0+127)
   836     0021  01B7               	clrf	(__pbssBANK0+6)& (0+127)
   837     0022  01B8               	clrf	(__pbssBANK0+7)& (0+127)
   838     0023  01B9               	clrf	(__pbssBANK0+8)& (0+127)
   839     0024  01BA               	clrf	(__pbssBANK0+9)& (0+127)
   840                           
   841                           ; Clear objects allocated to COMMON
   842     0025  01F9               	clrf	__pbssCOMMON& (0+127)
   843     0026  01FA               	clrf	(__pbssCOMMON+1)& (0+127)
   844     0027                     end_of_initialization:	
   845                           ;End of C runtime variable initialization code
   846                           
   847     0027                     __end_of__initialization:
   848     0027  0183               	clrf	3
   849     0028  120A  118A  2B64   	ljmp	_main	;jump to C main() function
   850                           
   851                           	psect	bssCOMMON
   852     0079                     __pbssCOMMON:
   853     0079                     _count:
   854     0079                     	ds	2
   855                           
   856                           	psect	dataCOMMON
   857     007B                     __pdataCOMMON:
   858     007B                     read_matrix_keypad@once:
   859     007B                     	ds	1
   860                           
   861                           	psect	bssBANK0
   862     0031                     __pbssBANK0:
   863     0031                     set_temp@temp:
   864     0031                     	ds	2
   865     0033                     _pre_heat_time:
   866     0033                     	ds	2
   867     0035                     _reset_flag:
   868     0035                     	ds	1
   869     0036                     set_temp@key_count:
   870     0036                     	ds	1
   871     0037                     set_time@key_count:
   872     0037                     	ds	1
   873     0038                     set_time@blink_pos:
   874     0038                     	ds	1
   875     0039                     _sec:
   876     0039                     	ds	1
   877     003A                     _min:
   878     003A                     	ds	1
   879                           
   880                           	psect	dataBANK0
   881     003B                     __pdataBANK0:
   882     003B                     _operational_flag:
   883     003B                     	ds	1
   884                           
   885                           	psect	cstackCOMMON
   886     0070                     __pcstackCOMMON:
   887     0070                     ?_init_timer2:
   888     0070                     ?_power_on_screen:	
   889                           ; 1 bytes @ 0x0
   890                           
   891     0070                     ?_clear_screen:	
   892                           ; 1 bytes @ 0x0
   893                           
   894     0070                     ?_display_menu_screen:	
   895                           ; 1 bytes @ 0x0
   896                           
   897     0070                     ?_time_display:	
   898                           ; 1 bytes @ 0x0
   899                           
   900     0070                     ?_heat_food:	
   901                           ; 1 bytes @ 0x0
   902                           
   903     0070                     ?_init_matrix_keypad:	
   904                           ; 1 bytes @ 0x0
   905                           
   906     0070                     ?_scan_keypad:	
   907                           ; 1 bytes @ 0x0
   908                           
   909     0070                     ?_read_matrix_keypad:	
   910                           ; 1 bytes @ 0x0
   911                           
   912     0070                     ?_init_display_controller:	
   913                           ; 1 bytes @ 0x0
   914                           
   915     0070                     ?_init_clcd:	
   916                           ; 1 bytes @ 0x0
   917                           
   918     0070                     ?_init_config:	
   919                           ; 1 bytes @ 0x0
   920                           
   921     0070                     ?_main:	
   922                           ; 1 bytes @ 0x0
   923                           
   924     0070                     ?_isr:	
   925                           ; 1 bytes @ 0x0
   926                           
   927     0070                     ??_isr:	
   928                           ; 1 bytes @ 0x0
   929                           
   930                           
   931                           ; 1 bytes @ 0x0
   932     0070                     	ds	2
   933     0072                     ?_clcd_write:
   934     0072                     ?___bmul:	
   935                           ; 1 bytes @ 0x2
   936                           
   937     0072                     ?___wmul:	
   938                           ; 1 bytes @ 0x2
   939                           
   940     0072                     ?___awdiv:	
   941                           ; 2 bytes @ 0x2
   942                           
   943     0072                     ?___awmod:	
   944                           ; 2 bytes @ 0x2
   945                           
   946     0072                     ?___lwdiv:	
   947                           ; 2 bytes @ 0x2
   948                           
   949     0072                     clcd_write@mode:	
   950                           ; 2 bytes @ 0x2
   951                           
   952     0072                     ___bmul@multiplicand:	
   953                           ; 1 bytes @ 0x2
   954                           
   955     0072                     scan_keypad@i:	
   956                           ; 1 bytes @ 0x2
   957                           
   958     0072                     ___wmul@multiplier:	
   959                           ; 2 bytes @ 0x2
   960                           
   961     0072                     ___awdiv@divisor:	
   962                           ; 2 bytes @ 0x2
   963                           
   964     0072                     ___awmod@divisor:	
   965                           ; 2 bytes @ 0x2
   966                           
   967     0072                     ___lwdiv@divisor:	
   968                           ; 2 bytes @ 0x2
   969                           
   970     0072                     ??_init_timer2:	
   971                           ; 2 bytes @ 0x2
   972                           
   973     0072                     ??_heat_food:	
   974                           ; 1 bytes @ 0x2
   975                           
   976     0072                     ??_init_matrix_keypad:	
   977                           ; 1 bytes @ 0x2
   978                           
   979     0072                     ??_scan_keypad:	
   980                           ; 1 bytes @ 0x2
   981                           
   982                           
   983                           ; 1 bytes @ 0x2
   984     0072                     	ds	1
   985     0073                     ___bmul@product:
   986     0073                     ??_clcd_write:	
   987                           ; 1 bytes @ 0x3
   988                           
   989     0073                     ??___bmul:	
   990                           ; 1 bytes @ 0x3
   991                           
   992                           
   993                           ; 1 bytes @ 0x3
   994     0073                     	ds	1
   995     0074                     read_matrix_keypad@mode:
   996     0074                     ___bmul@multiplier:	
   997                           ; 1 bytes @ 0x4
   998                           
   999     0074                     ___wmul@multiplicand:	
  1000                           ; 1 bytes @ 0x4
  1001                           
  1002     0074                     ___awdiv@dividend:	
  1003                           ; 2 bytes @ 0x4
  1004                           
  1005     0074                     ___awmod@dividend:	
  1006                           ; 2 bytes @ 0x4
  1007                           
  1008     0074                     ___lwdiv@dividend:	
  1009                           ; 2 bytes @ 0x4
  1010                           
  1011     0074                     ??_read_matrix_keypad:	
  1012                           ; 2 bytes @ 0x4
  1013                           
  1014                           
  1015                           ; 1 bytes @ 0x4
  1016     0074                     	ds	1
  1017     0075                     read_matrix_keypad@key:
  1018     0075                     clcd_write@byte:	
  1019                           ; 1 bytes @ 0x5
  1020                           
  1021                           
  1022                           ; 1 bytes @ 0x5
  1023     0075                     	ds	1
  1024     0076                     ?_clcd_print:
  1025     0076                     clcd_print@str:	
  1026                           ; 1 bytes @ 0x6
  1027                           
  1028     0076                     ___awmod@counter:	
  1029                           ; 1 bytes @ 0x6
  1030                           
  1031     0076                     ___wmul@product:	
  1032                           ; 1 bytes @ 0x6
  1033                           
  1034     0076                     ___lwdiv@quotient:	
  1035                           ; 2 bytes @ 0x6
  1036                           
  1037     0076                     ??_clear_screen:	
  1038                           ; 2 bytes @ 0x6
  1039                           
  1040     0076                     ??_init_display_controller:	
  1041                           ; 1 bytes @ 0x6
  1042                           
  1043     0076                     ??___wmul:	
  1044                           ; 1 bytes @ 0x6
  1045                           
  1046     0076                     ??___awdiv:	
  1047                           ; 1 bytes @ 0x6
  1048                           
  1049     0076                     ??___awmod:	
  1050                           ; 1 bytes @ 0x6
  1051                           
  1052     0076                     ??___lwdiv:	
  1053                           ; 1 bytes @ 0x6
  1054                           
  1055                           
  1056                           ; 1 bytes @ 0x6
  1057     0076                     	ds	1
  1058     0077                     clcd_print@addr:
  1059     0077                     ___awmod@sign:	
  1060                           ; 1 bytes @ 0x7
  1061                           
  1062                           
  1063                           ; 1 bytes @ 0x7
  1064     0077                     	ds	1
  1065     0078                     ___lwdiv@counter:
  1066     0078                     ??_clcd_print:	
  1067                           ; 1 bytes @ 0x8
  1068                           
  1069     0078                     ??_display_menu_screen:	
  1070                           ; 1 bytes @ 0x8
  1071                           
  1072     0078                     ??_init_clcd:	
  1073                           ; 1 bytes @ 0x8
  1074                           
  1075     0078                     ??_init_config:	
  1076                           ; 1 bytes @ 0x8
  1077                           
  1078                           
  1079                           ; 1 bytes @ 0x8
  1080     0078                     	ds	1
  1081     0079                     ??_clcd_putch:
  1082     0079                     ??_power_on_screen:	
  1083                           ; 1 bytes @ 0x9
  1084                           
  1085     0079                     ??_set_temp:	
  1086                           ; 1 bytes @ 0x9
  1087                           
  1088     0079                     ??___lwmod:	
  1089                           ; 1 bytes @ 0x9
  1090                           
  1091                           
  1092                           	psect	cstackBANK0
  1093     0020                     __pcstackBANK0:	
  1094                           ; 1 bytes @ 0x9
  1095                           
  1096     0020                     ?___lwmod:
  1097     0020                     ___awdiv@counter:	
  1098                           ; 2 bytes @ 0x0
  1099                           
  1100     0020                     ___lwmod@divisor:	
  1101                           ; 1 bytes @ 0x0
  1102                           
  1103                           
  1104                           ; 2 bytes @ 0x0
  1105     0020                     	ds	1
  1106     0021                     ___awdiv@sign:
  1107                           
  1108                           ; 1 bytes @ 0x1
  1109     0021                     	ds	1
  1110     0022                     ___awdiv@quotient:
  1111     0022                     ___lwmod@dividend:	
  1112                           ; 2 bytes @ 0x2
  1113                           
  1114                           
  1115                           ; 2 bytes @ 0x2
  1116     0022                     	ds	2
  1117     0024                     ___lwmod@counter:
  1118                           
  1119                           ; 1 bytes @ 0x4
  1120     0024                     	ds	1
  1121     0025                     ?_clcd_putch:
  1122     0025                     clcd_putch@addr:	
  1123                           ; 1 bytes @ 0x5
  1124                           
  1125                           
  1126                           ; 1 bytes @ 0x5
  1127     0025                     	ds	1
  1128     0026                     clcd_putch@data:
  1129                           
  1130                           ; 1 bytes @ 0x6
  1131     0026                     	ds	1
  1132     0027                     ?_set_time:
  1133     0027                     ?_set_temp:	
  1134                           ; 1 bytes @ 0x7
  1135                           
  1136     0027                     set_time@reset_flag:	
  1137                           ; 1 bytes @ 0x7
  1138                           
  1139     0027                     set_temp@reset_flag:	
  1140                           ; 1 bytes @ 0x7
  1141                           
  1142     0027                     power_on_screen@i:	
  1143                           ; 1 bytes @ 0x7
  1144                           
  1145     0027                     ??_time_display:	
  1146                           ; 2 bytes @ 0x7
  1147                           
  1148                           
  1149                           ; 1 bytes @ 0x7
  1150     0027                     	ds	1
  1151     0028                     set_temp@wait:
  1152     0028                     ??_set_time:	
  1153                           ; 1 bytes @ 0x8
  1154                           
  1155                           
  1156                           ; 1 bytes @ 0x8
  1157     0028                     	ds	1
  1158     0029                     set_temp@wait_94:
  1159     0029                     power_on_screen@i_57:	
  1160                           ; 1 bytes @ 0x9
  1161                           
  1162                           
  1163                           ; 2 bytes @ 0x9
  1164     0029                     	ds	1
  1165     002A                     set_time@wait:
  1166     002A                     set_temp@key:	
  1167                           ; 1 bytes @ 0xA
  1168                           
  1169                           
  1170                           ; 1 bytes @ 0xA
  1171     002A                     	ds	1
  1172     002B                     set_time@key:
  1173                           
  1174                           ; 1 bytes @ 0xB
  1175     002B                     	ds	1
  1176     002C                     ??_main:
  1177                           
  1178                           ; 1 bytes @ 0xC
  1179     002C                     	ds	3
  1180     002F                     main@start_mode:
  1181                           
  1182                           ; 1 bytes @ 0xF
  1183     002F                     	ds	1
  1184     0030                     main@key:
  1185                           
  1186                           ; 1 bytes @ 0x10
  1187     0030                     	ds	1
  1188                           
  1189                           	psect	maintext
  1190     0364                     __pmaintext:	
  1191 ;;
  1192 ;;Main: autosize = 0, tempsize = 3, incstack = 0, save=0
  1193 ;;
  1194 ;; *************** function _main *****************
  1195 ;; Defined at:
  1196 ;;		line 37 in file "main.c"
  1197 ;; Parameters:    Size  Location     Type
  1198 ;;		None
  1199 ;; Auto vars:     Size  Location     Type
  1200 ;;  key             1   16[BANK0 ] unsigned char 
  1201 ;;  start_mode      1   15[BANK0 ] unsigned char 
  1202 ;; Return value:  Size  Location     Type
  1203 ;;                  1    wreg      void 
  1204 ;; Registers used:
  1205 ;;		wreg, fsr0l, fsr0h, status,2, status,0, pclath, cstack
  1206 ;; Tracked objects:
  1207 ;;		On entry : B00/0
  1208 ;;		On exit  : 0/0
  1209 ;;		Unchanged: 0/0
  1210 ;; Data sizes:     COMMON   BANK0   BANK1   BANK3   BANK2
  1211 ;;      Params:         0       0       0       0       0
  1212 ;;      Locals:         0       2       0       0       0
  1213 ;;      Temps:          0       3       0       0       0
  1214 ;;      Totals:         0       5       0       0       0
  1215 ;;Total ram usage:        5 bytes
  1216 ;; Hardware stack levels required when called: 5
  1217 ;; This function calls:
  1218 ;;		_clcd_print
  1219 ;;		_clear_screen
  1220 ;;		_display_menu_screen
  1221 ;;		_heat_food
  1222 ;;		_init_config
  1223 ;;		_power_on_screen
  1224 ;;		_read_matrix_keypad
  1225 ;;		_set_temp
  1226 ;;		_set_time
  1227 ;;		_time_display
  1228 ;; This function is called by:
  1229 ;;		Startup code after reset
  1230 ;; This function uses a non-reentrant model
  1231 ;;
  1232                           
  1233     0364                     _main:	
  1234                           ;psect for function _main
  1235                           
  1236     0364                     l2629:	
  1237                           ;incstack = 0
  1238                           ; Regs used in _main: [wreg-fsr0h+status,2+status,0+pclath+cstack]
  1239                           
  1240                           
  1241                           ;main.c: 38:     unsigned char key;;main.c: 39:     unsigned char start_mode=0;
  1242     0364  1283               	bcf	3,5	;RP0=0, select bank0
  1243     0365  1303               	bcf	3,6	;RP1=0, select bank0
  1244     0366  01AF               	clrf	main@start_mode
  1245     0367                     l2631:
  1246                           
  1247                           ;main.c: 41:     init_config();
  1248     0367  120A  158A  25DB  120A  118A  	fcall	_init_config
  1249     036C                     l2633:
  1250                           
  1251                           ;main.c: 43:         key = read_matrix_keypad(1);
  1252     036C  3001               	movlw	1
  1253     036D  120A  158A  25F9  120A  118A  	fcall	_read_matrix_keypad
  1254     0372  1283               	bcf	3,5	;RP0=0, select bank0
  1255     0373  1303               	bcf	3,6	;RP1=0, select bank0
  1256     0374  00B0               	movwf	main@key
  1257     0375                     l2635:
  1258                           
  1259                           ;main.c: 45:         if (operational_flag==0x02){
  1260     0375  3002               	movlw	2
  1261     0376  063B               	xorwf	_operational_flag,w
  1262     0377  1D03               	btfss	3,2
  1263     0378  2B7A               	goto	u2511
  1264     0379  2B7B               	goto	u2510
  1265     037A                     u2511:
  1266     037A  2BDD               	goto	l2681
  1267     037B                     u2510:
  1268     037B                     l2637:
  1269                           
  1270                           ;main.c: 48:             if(key==1){
  1271     037B  0330               	decf	main@key,w
  1272     037C  1D03               	btfss	3,2
  1273     037D  2B7F               	goto	u2521
  1274     037E  2B80               	goto	u2520
  1275     037F                     u2521:
  1276     037F  2BA7               	goto	l2651
  1277     0380                     u2520:
  1278     0380                     l2639:
  1279                           
  1280                           ;main.c: 49:                 clear_screen();
  1281     0380  120A  158A  25C6  120A  118A  	fcall	_clear_screen
  1282     0385                     l2641:
  1283                           
  1284                           ;main.c: 50:                 operational_flag=0x11;
  1285     0385  3011               	movlw	17
  1286     0386  1283               	bcf	3,5	;RP0=0, select bank0
  1287     0387  1303               	bcf	3,6	;RP1=0, select bank0
  1288     0388  00BB               	movwf	_operational_flag
  1289     0389                     l2643:
  1290                           
  1291                           ;main.c: 51:                 start_mode=0;
  1292     0389  01AF               	clrf	main@start_mode
  1293     038A                     l2645:
  1294                           
  1295                           ;main.c: 52:                 clcd_print("Power=900w",(0xC0 + 0));
  1296     038A  3084               	movlw	(low ((STR_22-__stringbase)| (0+32768)))& (0+255)
  1297     038B  00F6               	movwf	clcd_print@str
  1298     038C  30C0               	movlw	192
  1299     038D  00F7               	movwf	clcd_print@addr
  1300     038E  120A  158A  261C  120A  118A  	fcall	_clcd_print
  1301     0393                     l2647:
  1302                           
  1303                           ;main.c: 53:                 _delay((unsigned long)((200)*(20000000/4000.0)));
  1304     0393  3006               	movlw	6
  1305     0394  1283               	bcf	3,5	;RP0=0, select bank0
  1306     0395  1303               	bcf	3,6	;RP1=0, select bank0
  1307     0396  00AE               	movwf	??_main+2
  1308     0397  3013               	movlw	19
  1309     0398  00AD               	movwf	??_main+1
  1310     0399  30AD               	movlw	173
  1311     039A  00AC               	movwf	??_main
  1312     039B                     u2647:
  1313     039B  0BAC               	decfsz	??_main,f
  1314     039C  2B9B               	goto	u2647
  1315     039D  0BAD               	decfsz	??_main+1,f
  1316     039E  2B9B               	goto	u2647
  1317     039F  0BAE               	decfsz	??_main+2,f
  1318     03A0  2B9B               	goto	u2647
  1319     03A1                     l2649:
  1320                           
  1321                           ;main.c: 54:                 clear_screen();
  1322     03A1  120A  158A  25C6  120A  118A  	fcall	_clear_screen
  1323                           
  1324                           ;main.c: 55:             }
  1325     03A6  2BDD               	goto	l2681
  1326     03A7                     l2651:
  1327     03A7  3002               	movlw	2
  1328     03A8  0630               	xorwf	main@key,w
  1329     03A9  1D03               	btfss	3,2
  1330     03AA  2BAC               	goto	u2531
  1331     03AB  2BAD               	goto	u2530
  1332     03AC                     u2531:
  1333     03AC  2BBA               	goto	l2661
  1334     03AD                     u2530:
  1335     03AD                     l2653:
  1336                           
  1337                           ;main.c: 57:                 clear_screen();
  1338     03AD  120A  158A  25C6  120A  118A  	fcall	_clear_screen
  1339     03B2                     l2655:
  1340                           
  1341                           ;main.c: 58:                 start_mode=0;
  1342     03B2  1283               	bcf	3,5	;RP0=0, select bank0
  1343     03B3  1303               	bcf	3,6	;RP1=0, select bank0
  1344     03B4  01AF               	clrf	main@start_mode
  1345     03B5                     l2657:
  1346                           
  1347                           ;main.c: 59:                 operational_flag = 0x12;
  1348     03B5  3012               	movlw	18
  1349     03B6  00BB               	movwf	_operational_flag
  1350     03B7                     l2659:
  1351                           
  1352                           ;main.c: 60:                 reset_flag = 0XFF;
  1353     03B7  30FF               	movlw	255
  1354     03B8  00B5               	movwf	_reset_flag
  1355                           
  1356                           ;main.c: 62:             }
  1357     03B9  2BDD               	goto	l2681
  1358     03BA                     l2661:
  1359     03BA  3003               	movlw	3
  1360     03BB  0630               	xorwf	main@key,w
  1361     03BC  1D03               	btfss	3,2
  1362     03BD  2BBF               	goto	u2541
  1363     03BE  2BC0               	goto	u2540
  1364     03BF                     u2541:
  1365     03BF  2BCB               	goto	l2671
  1366     03C0                     u2540:
  1367     03C0                     l2663:
  1368                           
  1369                           ;main.c: 64:                 clear_screen();
  1370     03C0  120A  158A  25C6  120A  118A  	fcall	_clear_screen
  1371     03C5                     l2665:
  1372                           
  1373                           ;main.c: 65:                 start_mode=0;
  1374     03C5  1283               	bcf	3,5	;RP0=0, select bank0
  1375     03C6  1303               	bcf	3,6	;RP1=0, select bank0
  1376     03C7  01AF               	clrf	main@start_mode
  1377     03C8                     l2667:
  1378                           
  1379                           ;main.c: 66:                 operational_flag = 0x13;
  1380     03C8  3013               	movlw	19
  1381     03C9  00BB               	movwf	_operational_flag
  1382     03CA  2BB7               	goto	l2659
  1383     03CB                     l2671:
  1384     03CB  3004               	movlw	4
  1385     03CC  0630               	xorwf	main@key,w
  1386     03CD  1D03               	btfss	3,2
  1387     03CE  2BD0               	goto	u2551
  1388     03CF  2BD1               	goto	u2550
  1389     03D0                     u2551:
  1390     03D0  2BDD               	goto	l254
  1391     03D1                     u2550:
  1392     03D1                     l2673:
  1393                           
  1394                           ;main.c: 71:                 clear_screen();
  1395     03D1  120A  158A  25C6  120A  118A  	fcall	_clear_screen
  1396     03D6                     l2675:
  1397                           
  1398                           ;main.c: 72:                 operational_flag=0X14;
  1399     03D6  3014               	movlw	20
  1400     03D7  1283               	bcf	3,5	;RP0=0, select bank0
  1401     03D8  1303               	bcf	3,6	;RP1=0, select bank0
  1402     03D9  00BB               	movwf	_operational_flag
  1403     03DA                     l2677:
  1404                           
  1405                           ;main.c: 73:                 start_mode=1;
  1406     03DA  3001               	movlw	1
  1407     03DB  00AF               	movwf	main@start_mode
  1408     03DC  2BB7               	goto	l2659
  1409     03DD                     l254:
  1410     03DD                     l2681:
  1411                           
  1412                           ;main.c: 77:         if(operational_flag == 0XDD){
  1413     03DD  30DD               	movlw	221
  1414     03DE  1283               	bcf	3,5	;RP0=0, select bank0
  1415     03DF  1303               	bcf	3,6	;RP1=0, select bank0
  1416     03E0  063B               	xorwf	_operational_flag,w
  1417     03E1  1D03               	btfss	3,2
  1418     03E2  2BE4               	goto	u2561
  1419     03E3  2BE5               	goto	u2560
  1420     03E4                     u2561:
  1421     03E4  2C11               	goto	l2701
  1422     03E5                     u2560:
  1423     03E5                     l2683:
  1424                           
  1425                           ;main.c: 78:             if(key == 4){
  1426     03E5  3004               	movlw	4
  1427     03E6  0630               	xorwf	main@key,w
  1428     03E7  1D03               	btfss	3,2
  1429     03E8  2BEA               	goto	u2571
  1430     03E9  2BEB               	goto	u2570
  1431     03EA                     u2571:
  1432     03EA  2BFF               	goto	l2693
  1433     03EB                     u2570:
  1434     03EB                     l2685:
  1435                           
  1436                           ;main.c: 81:                 if(start_mode){
  1437     03EB  082F               	movf	main@start_mode,w
  1438     03EC  1903               	btfsc	3,2
  1439     03ED  2BEF               	goto	u2581
  1440     03EE  2BF0               	goto	u2580
  1441     03EF                     u2581:
  1442     03EF  2C70               	goto	l2733
  1443     03F0                     u2580:
  1444     03F0                     l2687:
  1445                           
  1446                           ;main.c: 82:                    sec=sec+30;
  1447     03F0  0839               	movf	_sec,w
  1448     03F1  3E1E               	addlw	30
  1449     03F2  00B9               	movwf	_sec
  1450     03F3                     l2689:
  1451                           
  1452                           ;main.c: 83:                    if(sec >59){
  1453     03F3  303C               	movlw	60
  1454     03F4  0239               	subwf	_sec,w
  1455     03F5  1C03               	skipc
  1456     03F6  2BF8               	goto	u2591
  1457     03F7  2BF9               	goto	u2590
  1458     03F8                     u2591:
  1459     03F8  2C22               	goto	l268
  1460     03F9                     u2590:
  1461     03F9                     l2691:
  1462                           
  1463                           ;main.c: 84:                        min++;
  1464     03F9  3001               	movlw	1
  1465     03FA  07BA               	addwf	_min,f
  1466                           
  1467                           ;main.c: 85:                        sec=sec-60;
  1468     03FB  0839               	movf	_sec,w
  1469     03FC  3EC4               	addlw	196
  1470     03FD  00B9               	movwf	_sec
  1471     03FE  2C70               	goto	l2733
  1472     03FF                     l2693:
  1473     03FF  3005               	movlw	5
  1474     0400  0630               	xorwf	main@key,w
  1475     0401  1D03               	btfss	3,2
  1476     0402  2C04               	goto	u2601
  1477     0403  2C05               	goto	u2600
  1478     0404                     u2601:
  1479     0404  2C08               	goto	l2697
  1480     0405                     u2600:
  1481     0405                     l2695:
  1482                           
  1483                           ;main.c: 90:                 operational_flag = 0XCC;
  1484     0405  30CC               	movlw	204
  1485     0406  00BB               	movwf	_operational_flag
  1486                           
  1487                           ;main.c: 91:             }
  1488     0407  2C70               	goto	l2733
  1489     0408                     l2697:
  1490     0408  3006               	movlw	6
  1491     0409  0630               	xorwf	main@key,w
  1492     040A  1D03               	btfss	3,2
  1493     040B  2C0D               	goto	u2611
  1494     040C  2C0E               	goto	u2610
  1495     040D                     u2611:
  1496     040D  2C22               	goto	l268
  1497     040E                     u2610:
  1498     040E                     l2699:
  1499                           
  1500                           ;main.c: 93:                 operational_flag = 0XBB;
  1501     040E  30BB               	movlw	187
  1502     040F  00BB               	movwf	_operational_flag
  1503     0410  2C70               	goto	l2733
  1504     0411                     l2701:
  1505     0411  30CC               	movlw	204
  1506     0412  063B               	xorwf	_operational_flag,w
  1507     0413  1D03               	btfss	3,2
  1508     0414  2C16               	goto	u2621
  1509     0415  2C17               	goto	u2620
  1510     0416                     u2621:
  1511     0416  2C70               	goto	l2733
  1512     0417                     u2620:
  1513     0417                     l2703:
  1514                           
  1515                           ;main.c: 98:             if(key == 4){
  1516     0417  3004               	movlw	4
  1517     0418  0630               	xorwf	main@key,w
  1518     0419  1D03               	btfss	3,2
  1519     041A  2C1C               	goto	u2631
  1520     041B  2C1D               	goto	u2630
  1521     041C                     u2631:
  1522     041C  2C22               	goto	l268
  1523     041D                     u2630:
  1524     041D                     l2705:
  1525                           
  1526                           ;main.c: 99:                 RC2 = 1;
  1527     041D  1507               	bsf	7,2	;volatile
  1528                           
  1529                           ;main.c: 100:                 TMR2ON = 1;
  1530     041E  1512               	bsf	18,2	;volatile
  1531                           
  1532                           ;main.c: 101:                 operational_flag = 0XDD;
  1533     041F  30DD               	movlw	221
  1534     0420  00BB               	movwf	_operational_flag
  1535     0421  2C70               	goto	l2733
  1536     0422                     l268:
  1537                           
  1538                           ;main.c: 104:         switch(operational_flag){
  1539     0422  2C70               	goto	l2733
  1540     0423                     l2707:
  1541                           
  1542                           ;main.c: 106:                 power_on_screen();
  1543     0423  120A  158A  275A  120A  118A  	fcall	_power_on_screen
  1544     0428                     l2709:
  1545                           
  1546                           ;main.c: 107:                 operational_flag= 0x02;
  1547     0428  3002               	movlw	2
  1548     0429  1283               	bcf	3,5	;RP0=0, select bank0
  1549     042A  1303               	bcf	3,6	;RP1=0, select bank0
  1550     042B  00BB               	movwf	_operational_flag
  1551     042C                     l2711:
  1552                           
  1553                           ;main.c: 109:                 clear_screen();
  1554     042C  120A  158A  25C6  120A  118A  	fcall	_clear_screen
  1555                           
  1556                           ;main.c: 110:                 break;
  1557     0431  2C8D               	goto	l2735
  1558     0432                     l2713:
  1559                           
  1560                           ;main.c: 112:                 display_menu_screen();
  1561     0432  120A  158A  2641  120A  118A  	fcall	_display_menu_screen
  1562                           
  1563                           ;main.c: 113:                 break;
  1564     0437  2C8D               	goto	l2735
  1565     0438                     l2715:
  1566                           
  1567                           ;main.c: 115:                 set_time(key,reset_flag);
  1568     0438  0835               	movf	_reset_flag,w
  1569     0439  00A7               	movwf	set_time@reset_flag
  1570     043A  0830               	movf	main@key,w
  1571     043B  120A  118A  2230  120A  118A  	fcall	_set_time
  1572                           
  1573                           ;main.c: 116:                 break;
  1574     0440  2C8D               	goto	l2735
  1575     0441                     l2717:
  1576                           
  1577                           ;main.c: 118:                 time_display();
  1578     0441  120A  118A  25EB  120A  118A  	fcall	_time_display
  1579                           
  1580                           ;main.c: 119:                 break;
  1581     0446  2C8D               	goto	l2735
  1582     0447                     l277:	
  1583                           ;main.c: 120:             case 0XCC :
  1584                           
  1585                           
  1586                           ;main.c: 122:                 RC2 = 0;
  1587     0447  1107               	bcf	7,2	;volatile
  1588                           
  1589                           ;main.c: 123:                 TMR2ON = 0;
  1590     0448  1112               	bcf	18,2	;volatile
  1591                           
  1592                           ;main.c: 124:                 break;
  1593     0449  2C8D               	goto	l2735
  1594     044A                     l278:	
  1595                           ;main.c: 125:             case 0XBB :
  1596                           
  1597                           
  1598                           ;main.c: 126:                 RC2 = 0;
  1599     044A  1107               	bcf	7,2	;volatile
  1600                           
  1601                           ;main.c: 127:                 TMR2ON = 0;
  1602     044B  1112               	bcf	18,2	;volatile
  1603     044C                     l2719:
  1604                           
  1605                           ;main.c: 129:                 min = 0;
  1606     044C  01BA               	clrf	_min
  1607                           
  1608                           ;main.c: 130:                 sec = 0;
  1609     044D  01B9               	clrf	_sec
  1610     044E                     l2721:
  1611                           
  1612                           ;main.c: 131:                 clear_screen();
  1613     044E  120A  158A  25C6  120A  118A  	fcall	_clear_screen
  1614     0453                     l2723:
  1615                           
  1616                           ;main.c: 132:                 operational_flag = 0x02;
  1617     0453  3002               	movlw	2
  1618     0454  1283               	bcf	3,5	;RP0=0, select bank0
  1619     0455  1303               	bcf	3,6	;RP1=0, select bank0
  1620     0456  00BB               	movwf	_operational_flag
  1621                           
  1622                           ;main.c: 133:                 break;
  1623     0457  2C8D               	goto	l2735
  1624     0458                     l2725:
  1625                           
  1626                           ;main.c: 136:                 set_time(key, reset_flag);
  1627     0458  0835               	movf	_reset_flag,w
  1628     0459  00A7               	movwf	set_time@reset_flag
  1629     045A  0830               	movf	main@key,w
  1630     045B  120A  118A  2230  120A  118A  	fcall	_set_time
  1631                           
  1632                           ;main.c: 137:                 break;
  1633     0460  2C8D               	goto	l2735
  1634     0461                     l2727:
  1635                           
  1636                           ;main.c: 141:                 set_temp(key, reset_flag);
  1637     0461  0835               	movf	_reset_flag,w
  1638     0462  00A7               	movwf	set_temp@reset_flag
  1639     0463  0830               	movf	main@key,w
  1640     0464  120A  118A  202B  120A  118A  	fcall	_set_temp
  1641                           
  1642                           ;main.c: 142:                 break;
  1643     0469  2C8D               	goto	l2735
  1644     046A                     l2729:
  1645                           
  1646                           ;main.c: 146:                 heat_food();
  1647     046A  120A  158A  2564  120A  118A  	fcall	_heat_food
  1648                           
  1649                           ;main.c: 147:                 break;
  1650     046F  2C8D               	goto	l2735
  1651     0470                     l2733:
  1652     0470  083B               	movf	_operational_flag,w
  1653                           
  1654                           ; Switch size 1, requested type "simple"
  1655                           ; Number of cases is 9, Range of values is 1 to 221
  1656                           ; switch strategies available:
  1657                           ; Name         Instructions Cycles
  1658                           ; simple_byte           28    15 (average)
  1659                           ; jumptable            263     9 (fixed)
  1660                           ;	Chosen strategy is simple_byte
  1661     0471  3A01               	xorlw	1	; case 1
  1662     0472  1903               	skipnz
  1663     0473  2C23               	goto	l2707
  1664     0474  3A03               	xorlw	3	; case 2
  1665     0475  1903               	skipnz
  1666     0476  2C32               	goto	l2713
  1667     0477  3A13               	xorlw	19	; case 17
  1668     0478  1903               	skipnz
  1669     0479  2C38               	goto	l2715
  1670     047A  3A03               	xorlw	3	; case 18
  1671     047B  1903               	skipnz
  1672     047C  2C58               	goto	l2725
  1673     047D  3A01               	xorlw	1	; case 19
  1674     047E  1903               	skipnz
  1675     047F  2C61               	goto	l2727
  1676     0480  3A07               	xorlw	7	; case 20
  1677     0481  1903               	skipnz
  1678     0482  2C6A               	goto	l2729
  1679     0483  3AAF               	xorlw	175	; case 187
  1680     0484  1903               	skipnz
  1681     0485  2C4A               	goto	l278
  1682     0486  3A77               	xorlw	119	; case 204
  1683     0487  1903               	skipnz
  1684     0488  2C47               	goto	l277
  1685     0489  3A11               	xorlw	17	; case 221
  1686     048A  1903               	skipnz
  1687     048B  2C41               	goto	l2717
  1688     048C  2C8D               	goto	l2735
  1689     048D                     l2735:
  1690                           
  1691                           ;main.c: 150:         reset_flag = 0X00;
  1692     048D  1283               	bcf	3,5	;RP0=0, select bank0
  1693     048E  1303               	bcf	3,6	;RP1=0, select bank0
  1694     048F  01B5               	clrf	_reset_flag
  1695     0490  2B6C               	goto	l2633
  1696     0491  120A  118A  280C   	ljmp	start
  1697     0494                     __end_of_main:
  1698                           
  1699                           	psect	text1
  1700     05EB                     __ptext1:	
  1701 ;; *************** function _time_display *****************
  1702 ;; Defined at:
  1703 ;;		line 101 in file "microwave_oven.c"
  1704 ;; Parameters:    Size  Location     Type
  1705 ;;		None
  1706 ;; Auto vars:     Size  Location     Type
  1707 ;;		None
  1708 ;; Return value:  Size  Location     Type
  1709 ;;                  1    wreg      void 
  1710 ;; Registers used:
  1711 ;;		wreg, fsr0l, fsr0h, status,2, status,0, pclath, cstack
  1712 ;; Tracked objects:
  1713 ;;		On entry : 0/0
  1714 ;;		On exit  : 0/0
  1715 ;;		Unchanged: 0/0
  1716 ;; Data sizes:     COMMON   BANK0   BANK1   BANK3   BANK2
  1717 ;;      Params:         0       0       0       0       0
  1718 ;;      Locals:         0       0       0       0       0
  1719 ;;      Temps:          0       3       0       0       0
  1720 ;;      Totals:         0       3       0       0       0
  1721 ;;Total ram usage:        3 bytes
  1722 ;; Hardware stack levels used: 1
  1723 ;; Hardware stack levels required when called: 3
  1724 ;; This function calls:
  1725 ;;		___awdiv
  1726 ;;		___awmod
  1727 ;;		_clcd_print
  1728 ;;		_clcd_putch
  1729 ;;		_clear_screen
  1730 ;; This function is called by:
  1731 ;;		_main
  1732 ;; This function uses a non-reentrant model
  1733 ;;
  1734                           
  1735     05EB                     _time_display:	
  1736                           ;psect for function _time_display
  1737                           
  1738     05EB                     l2589:	
  1739                           ;incstack = 0
  1740                           ; Regs used in _time_display: [wreg-fsr0h+status,2+status,0+pclath+cstack]
  1741                           
  1742                           
  1743                           ;microwave_oven.c: 103:     clcd_print("TIME = ",(0x80 + 1));
  1744     05EB  30AD               	movlw	(low ((STR_10-__stringbase)| (0+32768)))& (0+255)
  1745     05EC  00F6               	movwf	clcd_print@str
  1746     05ED  3081               	movlw	129
  1747     05EE  00F7               	movwf	clcd_print@addr
  1748     05EF  120A  158A  261C  120A  118A  	fcall	_clcd_print
  1749     05F4                     l2591:
  1750                           
  1751                           ;microwave_oven.c: 104:     clcd_putch((sec/10 + '0'),(0x80 + 12));
  1752     05F4  308C               	movlw	140
  1753     05F5  1283               	bcf	3,5	;RP0=0, select bank0
  1754     05F6  1303               	bcf	3,6	;RP1=0, select bank0
  1755     05F7  00A5               	movwf	clcd_putch@addr
  1756     05F8  300A               	movlw	10
  1757     05F9  00F2               	movwf	___awdiv@divisor
  1758     05FA  3000               	movlw	0
  1759     05FB  00F3               	movwf	___awdiv@divisor+1
  1760     05FC  0839               	movf	_sec,w
  1761     05FD  00A7               	movwf	??_time_display
  1762     05FE  01A8               	clrf	??_time_display+1
  1763     05FF  0827               	movf	??_time_display,w
  1764     0600  00F4               	movwf	___awdiv@dividend
  1765     0601  0828               	movf	??_time_display+1,w
  1766     0602  00F5               	movwf	___awdiv@dividend+1
  1767     0603  120A  118A  2770  120A  118A  	fcall	___awdiv
  1768     0608  0872               	movf	?___awdiv,w
  1769     0609  3E30               	addlw	48
  1770     060A  120A  158A  25B1  120A  118A  	fcall	_clcd_putch
  1771     060F                     l2593:
  1772                           
  1773                           ;microwave_oven.c: 105:     clcd_putch((sec%10 + '0'),(0x80 + 13));
  1774     060F  308D               	movlw	141
  1775     0610  1283               	bcf	3,5	;RP0=0, select bank0
  1776     0611  1303               	bcf	3,6	;RP1=0, select bank0
  1777     0612  00A5               	movwf	clcd_putch@addr
  1778     0613  300A               	movlw	10
  1779     0614  00F2               	movwf	___awmod@divisor
  1780     0615  3000               	movlw	0
  1781     0616  00F3               	movwf	___awmod@divisor+1
  1782     0617  0839               	movf	_sec,w
  1783     0618  00A7               	movwf	??_time_display
  1784     0619  01A8               	clrf	??_time_display+1
  1785     061A  0827               	movf	??_time_display,w
  1786     061B  00F4               	movwf	___awmod@dividend
  1787     061C  0828               	movf	??_time_display+1,w
  1788     061D  00F5               	movwf	___awmod@dividend+1
  1789     061E  120A  158A  27A9  120A  118A  	fcall	___awmod
  1790     0623  0872               	movf	?___awmod,w
  1791     0624  3E30               	addlw	48
  1792     0625  120A  158A  25B1  120A  118A  	fcall	_clcd_putch
  1793     062A                     l2595:
  1794                           
  1795                           ;microwave_oven.c: 106:     clcd_putch(':',(0x80 + 11));
  1796     062A  308B               	movlw	139
  1797     062B  1283               	bcf	3,5	;RP0=0, select bank0
  1798     062C  1303               	bcf	3,6	;RP1=0, select bank0
  1799     062D  00A5               	movwf	clcd_putch@addr
  1800     062E  303A               	movlw	58
  1801     062F  120A  158A  25B1  120A  118A  	fcall	_clcd_putch
  1802     0634                     l2597:
  1803                           
  1804                           ;microwave_oven.c: 107:     clcd_putch((min/10 + '0'),(0x80 + 9));
  1805     0634  3089               	movlw	137
  1806     0635  1283               	bcf	3,5	;RP0=0, select bank0
  1807     0636  1303               	bcf	3,6	;RP1=0, select bank0
  1808     0637  00A5               	movwf	clcd_putch@addr
  1809     0638  300A               	movlw	10
  1810     0639  00F2               	movwf	___awdiv@divisor
  1811     063A  3000               	movlw	0
  1812     063B  00F3               	movwf	___awdiv@divisor+1
  1813     063C  083A               	movf	_min,w
  1814     063D  00A7               	movwf	??_time_display
  1815     063E  01A8               	clrf	??_time_display+1
  1816     063F  0827               	movf	??_time_display,w
  1817     0640  00F4               	movwf	___awdiv@dividend
  1818     0641  0828               	movf	??_time_display+1,w
  1819     0642  00F5               	movwf	___awdiv@dividend+1
  1820     0643  120A  118A  2770  120A  118A  	fcall	___awdiv
  1821     0648  0872               	movf	?___awdiv,w
  1822     0649  3E30               	addlw	48
  1823     064A  120A  158A  25B1  120A  118A  	fcall	_clcd_putch
  1824     064F                     l2599:
  1825                           
  1826                           ;microwave_oven.c: 108:     clcd_putch( (min%10 + '0'),(0x80 + 10));
  1827     064F  308A               	movlw	138
  1828     0650  1283               	bcf	3,5	;RP0=0, select bank0
  1829     0651  1303               	bcf	3,6	;RP1=0, select bank0
  1830     0652  00A5               	movwf	clcd_putch@addr
  1831     0653  300A               	movlw	10
  1832     0654  00F2               	movwf	___awmod@divisor
  1833     0655  3000               	movlw	0
  1834     0656  00F3               	movwf	___awmod@divisor+1
  1835     0657  083A               	movf	_min,w
  1836     0658  00A7               	movwf	??_time_display
  1837     0659  01A8               	clrf	??_time_display+1
  1838     065A  0827               	movf	??_time_display,w
  1839     065B  00F4               	movwf	___awmod@dividend
  1840     065C  0828               	movf	??_time_display+1,w
  1841     065D  00F5               	movwf	___awmod@dividend+1
  1842     065E  120A  158A  27A9  120A  118A  	fcall	___awmod
  1843     0663  0872               	movf	?___awmod,w
  1844     0664  3E30               	addlw	48
  1845     0665  120A  158A  25B1  120A  118A  	fcall	_clcd_putch
  1846     066A                     l2601:
  1847                           
  1848                           ;microwave_oven.c: 109:     clcd_print("4.START/RESUME",(0xC0 + 1));
  1849     066A  3032               	movlw	(low ((STR_11-__stringbase)| (0+32768)))& (0+255)
  1850     066B  00F6               	movwf	clcd_print@str
  1851     066C  30C1               	movlw	193
  1852     066D  00F7               	movwf	clcd_print@addr
  1853     066E  120A  158A  261C  120A  118A  	fcall	_clcd_print
  1854     0673                     l2603:
  1855                           
  1856                           ;microwave_oven.c: 110:     clcd_print("5.PAUSE",(0xC0 + 1));
  1857     0673  30B5               	movlw	(low ((STR_12-__stringbase)| (0+32768)))& (0+255)
  1858     0674  00F6               	movwf	clcd_print@str
  1859     0675  30C1               	movlw	193
  1860     0676  00F7               	movwf	clcd_print@addr
  1861     0677  120A  158A  261C  120A  118A  	fcall	_clcd_print
  1862     067C                     l2605:
  1863                           
  1864                           ;microwave_oven.c: 111:     clcd_print("6.STOP",(0xC0 + 1));
  1865     067C  30DB               	movlw	(low ((STR_13-__stringbase)| (0+32768)))& (0+255)
  1866     067D  00F6               	movwf	clcd_print@str
  1867     067E  30C1               	movlw	193
  1868     067F  00F7               	movwf	clcd_print@addr
  1869     0680  120A  158A  261C  120A  118A  	fcall	_clcd_print
  1870     0685                     l2607:
  1871                           
  1872                           ;microwave_oven.c: 113:     if(min == 0 && sec == 0){
  1873     0685  1283               	bcf	3,5	;RP0=0, select bank0
  1874     0686  1303               	bcf	3,6	;RP1=0, select bank0
  1875     0687  083A               	movf	_min,w
  1876     0688  1D03               	btfss	3,2
  1877     0689  2E8B               	goto	u2491
  1878     068A  2E8C               	goto	u2490
  1879     068B                     u2491:
  1880     068B  2EC3               	goto	l62
  1881     068C                     u2490:
  1882     068C                     l2609:
  1883     068C  0839               	movf	_sec,w
  1884     068D  1D03               	btfss	3,2
  1885     068E  2E90               	goto	u2501
  1886     068F  2E91               	goto	u2500
  1887     0690                     u2501:
  1888     0690  2EC3               	goto	l62
  1889     0691                     u2500:
  1890     0691                     l2611:
  1891                           
  1892                           ;microwave_oven.c: 114:         clear_screen();
  1893     0691  120A  158A  25C6  120A  118A  	fcall	_clear_screen
  1894     0696                     l2613:
  1895                           
  1896                           ;microwave_oven.c: 116:         TMR2ON = 0;
  1897     0696  1283               	bcf	3,5	;RP0=0, select bank0
  1898     0697  1303               	bcf	3,6	;RP1=0, select bank0
  1899     0698  1112               	bcf	18,2	;volatile
  1900     0699                     l2615:
  1901                           
  1902                           ;microwave_oven.c: 117:         RC2 = 0;
  1903     0699  1107               	bcf	7,2	;volatile
  1904     069A                     l2617:
  1905                           
  1906                           ;microwave_oven.c: 118:         clcd_print("TIME UP!!!",(0xC0 + 4));
  1907     069A  308F               	movlw	(low ((STR_14-__stringbase)| (0+32768)))& (0+255)
  1908     069B  00F6               	movwf	clcd_print@str
  1909     069C  30C4               	movlw	196
  1910     069D  00F7               	movwf	clcd_print@addr
  1911     069E  120A  158A  261C  120A  118A  	fcall	_clcd_print
  1912     06A3                     l2619:
  1913                           
  1914                           ;microwave_oven.c: 119:         clcd_print("Enjoy your meal",(0x90 + 0));
  1915     06A3  3022               	movlw	(low ((STR_15-__stringbase)| (0+32768)))& (0+255)
  1916     06A4  00F6               	movwf	clcd_print@str
  1917     06A5  3090               	movlw	144
  1918     06A6  00F7               	movwf	clcd_print@addr
  1919     06A7  120A  158A  261C  120A  118A  	fcall	_clcd_print
  1920     06AC                     l2621:
  1921                           
  1922                           ;microwave_oven.c: 123:         RC1 = 1;
  1923     06AC  1283               	bcf	3,5	;RP0=0, select bank0
  1924     06AD  1303               	bcf	3,6	;RP1=0, select bank0
  1925     06AE  1487               	bsf	7,1	;volatile
  1926     06AF                     l2623:
  1927                           
  1928                           ;microwave_oven.c: 124:         _delay((unsigned long)((1000)*(20000000/4000.0)));
  1929     06AF  301A               	movlw	26
  1930     06B0  1283               	bcf	3,5	;RP0=0, select bank0
  1931     06B1  1303               	bcf	3,6	;RP1=0, select bank0
  1932     06B2  00A9               	movwf	??_time_display+2
  1933     06B3  305E               	movlw	94
  1934     06B4  00A8               	movwf	??_time_display+1
  1935     06B5  306D               	movlw	109
  1936     06B6  00A7               	movwf	??_time_display
  1937     06B7                     u2657:
  1938     06B7  0BA7               	decfsz	??_time_display,f
  1939     06B8  2EB7               	goto	u2657
  1940     06B9  0BA8               	decfsz	??_time_display+1,f
  1941     06BA  2EB7               	goto	u2657
  1942     06BB  0BA9               	decfsz	??_time_display+2,f
  1943     06BC  2EB7               	goto	u2657
  1944     06BD  2EBE               	nop2
  1945     06BE                     l2625:
  1946                           
  1947                           ;microwave_oven.c: 125:         RC1 = 0;
  1948     06BE  1283               	bcf	3,5	;RP0=0, select bank0
  1949     06BF  1303               	bcf	3,6	;RP1=0, select bank0
  1950     06C0  1087               	bcf	7,1	;volatile
  1951     06C1                     l2627:
  1952                           
  1953                           ;microwave_oven.c: 127:         operational_flag = 0x02;
  1954     06C1  3002               	movlw	2
  1955     06C2  00BB               	movwf	_operational_flag
  1956     06C3                     l62:
  1957     06C3  0008               	return
  1958     06C4                     __end_of_time_display:
  1959                           
  1960                           	psect	text2
  1961     0230                     __ptext2:	
  1962 ;; *************** function _set_time *****************
  1963 ;; Defined at:
  1964 ;;		line 33 in file "microwave_oven.c"
  1965 ;; Parameters:    Size  Location     Type
  1966 ;;  key             1    wreg     unsigned char 
  1967 ;;  reset_flag      1    7[BANK0 ] unsigned char 
  1968 ;; Auto vars:     Size  Location     Type
  1969 ;;  key             1   11[BANK0 ] unsigned char 
  1970 ;;  wait            1   10[BANK0 ] unsigned char 
  1971 ;; Return value:  Size  Location     Type
  1972 ;;                  1    wreg      void 
  1973 ;; Registers used:
  1974 ;;		wreg, fsr0l, fsr0h, status,2, status,0, pclath, cstack
  1975 ;; Tracked objects:
  1976 ;;		On entry : 0/0
  1977 ;;		On exit  : 0/0
  1978 ;;		Unchanged: 0/0
  1979 ;; Data sizes:     COMMON   BANK0   BANK1   BANK3   BANK2
  1980 ;;      Params:         0       1       0       0       0
  1981 ;;      Locals:         0       2       0       0       0
  1982 ;;      Temps:          0       2       0       0       0
  1983 ;;      Totals:         0       5       0       0       0
  1984 ;;Total ram usage:        5 bytes
  1985 ;; Hardware stack levels used: 1
  1986 ;; Hardware stack levels required when called: 3
  1987 ;; This function calls:
  1988 ;;		___awdiv
  1989 ;;		___awmod
  1990 ;;		___bmul
  1991 ;;		_clcd_print
  1992 ;;		_clcd_putch
  1993 ;;		_clear_screen
  1994 ;; This function is called by:
  1995 ;;		_main
  1996 ;; This function uses a non-reentrant model
  1997 ;;
  1998                           
  1999     0230                     _set_time:	
  2000                           ;psect for function _set_time
  2001                           
  2002                           
  2003                           ;incstack = 0
  2004                           ; Regs used in _set_time: [wreg-fsr0h+status,2+status,0+pclath+cstack]
  2005                           ;set_time@key stored from wreg
  2006     0230  1283               	bcf	3,5	;RP0=0, select bank0
  2007     0231  1303               	bcf	3,6	;RP1=0, select bank0
  2008     0232  00AB               	movwf	set_time@key
  2009     0233                     l2529:
  2010                           
  2011                           ;microwave_oven.c: 34:     static unsigned char blink_pos =0, key_count = 0;;microwave_o
      +                          ven.c: 35:     if(reset_flag == 0XFF){
  2012     0233  0A27               	incf	set_time@reset_flag,w
  2013     0234  1D03               	btfss	3,2
  2014     0235  2A37               	goto	u2381
  2015     0236  2A38               	goto	u2380
  2016     0237                     u2381:
  2017     0237  2A3E               	goto	l2535
  2018     0238                     u2380:
  2019     0238                     l2531:
  2020                           
  2021                           ;microwave_oven.c: 36:         blink_pos = 0;
  2022     0238  01B8               	clrf	set_time@blink_pos
  2023                           
  2024                           ;microwave_oven.c: 37:         key_count = 0;
  2025     0239  01B7               	clrf	set_time@key_count
  2026     023A                     l2533:
  2027                           
  2028                           ;microwave_oven.c: 38:         key = 0xFF;
  2029     023A  30FF               	movlw	255
  2030     023B  00AB               	movwf	set_time@key
  2031                           
  2032                           ;microwave_oven.c: 39:         min = 0;
  2033     023C  01BA               	clrf	_min
  2034                           
  2035                           ;microwave_oven.c: 40:         sec = 0;
  2036     023D  01B9               	clrf	_sec
  2037     023E                     l2535:
  2038                           
  2039                           ;microwave_oven.c: 43:     clcd_print("SET TIME (MM:SS", (0x80 + 0));
  2040     023E  3012               	movlw	(low ((STR_7-__stringbase)| (0+32768)))& (0+255)
  2041     023F  00F6               	movwf	clcd_print@str
  2042     0240  3080               	movlw	128
  2043     0241  00F7               	movwf	clcd_print@addr
  2044     0242  120A  158A  261C  120A  118A  	fcall	_clcd_print
  2045     0247                     l2537:
  2046                           
  2047                           ;microwave_oven.c: 44:     clcd_print("TIME -",(0xC0 + 0));
  2048     0247  30CD               	movlw	(low ((STR_8-__stringbase)| (0+32768)))& (0+255)
  2049     0248  00F6               	movwf	clcd_print@str
  2050     0249  30C0               	movlw	192
  2051     024A  00F7               	movwf	clcd_print@addr
  2052     024B  120A  158A  261C  120A  118A  	fcall	_clcd_print
  2053     0250                     l2539:
  2054                           
  2055                           ;microwave_oven.c: 45:     clcd_print("*:CLEAR  #:ENTER",(0xD0 + 0));
  2056     0250  3001               	movlw	(low ((STR_9-__stringbase)| (0+32768)))& (0+255)
  2057     0251  00F6               	movwf	clcd_print@str
  2058     0252  30D0               	movlw	208
  2059     0253  00F7               	movwf	clcd_print@addr
  2060     0254  120A  158A  261C  120A  118A  	fcall	_clcd_print
  2061     0259                     l2541:
  2062                           
  2063                           ;microwave_oven.c: 47:     if( key !='*' && key !='#' && key !=0xFF){
  2064     0259  302A               	movlw	42
  2065     025A  1283               	bcf	3,5	;RP0=0, select bank0
  2066     025B  1303               	bcf	3,6	;RP1=0, select bank0
  2067     025C  062B               	xorwf	set_time@key,w
  2068     025D  1903               	btfsc	3,2
  2069     025E  2A60               	goto	u2391
  2070     025F  2A61               	goto	u2390
  2071     0260                     u2391:
  2072     0260  2A97               	goto	l2561
  2073     0261                     u2390:
  2074     0261                     l2543:
  2075     0261  3023               	movlw	35
  2076     0262  062B               	xorwf	set_time@key,w
  2077     0263  1903               	btfsc	3,2
  2078     0264  2A66               	goto	u2401
  2079     0265  2A67               	goto	u2400
  2080     0266                     u2401:
  2081     0266  2A97               	goto	l2561
  2082     0267                     u2400:
  2083     0267                     l2545:
  2084     0267  0A2B               	incf	set_time@key,w
  2085     0268  1903               	btfsc	3,2
  2086     0269  2A6B               	goto	u2411
  2087     026A  2A6C               	goto	u2410
  2088     026B                     u2411:
  2089     026B  2A97               	goto	l2561
  2090     026C                     u2410:
  2091     026C                     l2547:
  2092                           
  2093                           ;microwave_oven.c: 48:         key_count ++;
  2094     026C  3001               	movlw	1
  2095     026D  07B7               	addwf	set_time@key_count,f
  2096     026E                     l2549:
  2097                           
  2098                           ;microwave_oven.c: 49:         if(key_count <=2){
  2099     026E  3003               	movlw	3
  2100     026F  0237               	subwf	set_time@key_count,w
  2101     0270  1803               	skipnc
  2102     0271  2A73               	goto	u2421
  2103     0272  2A74               	goto	u2420
  2104     0273                     u2421:
  2105     0273  2A82               	goto	l2555
  2106     0274                     u2420:
  2107     0274                     l2551:
  2108                           
  2109                           ;microwave_oven.c: 50:             sec =sec * 10 + key;
  2110     0274  300A               	movlw	10
  2111     0275  00F2               	movwf	___bmul@multiplicand
  2112     0276  0839               	movf	_sec,w
  2113     0277  120A  158A  259E  120A  118A  	fcall	___bmul
  2114     027C  1283               	bcf	3,5	;RP0=0, select bank0
  2115     027D  1303               	bcf	3,6	;RP1=0, select bank0
  2116     027E  072B               	addwf	set_time@key,w
  2117     027F  00B9               	movwf	_sec
  2118     0280                     l2553:
  2119                           
  2120                           ;microwave_oven.c: 51:             blink_pos = 0;
  2121     0280  01B8               	clrf	set_time@blink_pos
  2122                           
  2123                           ;microwave_oven.c: 52:         }
  2124     0281  2AB8               	goto	l2577
  2125     0282                     l2555:
  2126     0282  3005               	movlw	5
  2127     0283  0237               	subwf	set_time@key_count,w
  2128     0284  1803               	skipnc
  2129     0285  2A87               	goto	u2431
  2130     0286  2A88               	goto	u2430
  2131     0287                     u2431:
  2132     0287  2AB8               	goto	l2577
  2133     0288                     u2430:
  2134     0288                     l2557:
  2135                           
  2136                           ;microwave_oven.c: 54:             min =min * 10 + key;
  2137     0288  300A               	movlw	10
  2138     0289  00F2               	movwf	___bmul@multiplicand
  2139     028A  083A               	movf	_min,w
  2140     028B  120A  158A  259E  120A  118A  	fcall	___bmul
  2141     0290  1283               	bcf	3,5	;RP0=0, select bank0
  2142     0291  1303               	bcf	3,6	;RP1=0, select bank0
  2143     0292  072B               	addwf	set_time@key,w
  2144     0293  00BA               	movwf	_min
  2145     0294                     l2559:
  2146                           
  2147                           ;microwave_oven.c: 55:             blink_pos = 1;
  2148     0294  3001               	movlw	1
  2149     0295  00B8               	movwf	set_time@blink_pos
  2150     0296  2AB8               	goto	l2577
  2151     0297                     l2561:
  2152     0297  302A               	movlw	42
  2153     0298  062B               	xorwf	set_time@key,w
  2154     0299  1D03               	btfss	3,2
  2155     029A  2A9C               	goto	u2441
  2156     029B  2A9D               	goto	u2440
  2157     029C                     u2441:
  2158     029C  2AA9               	goto	l2571
  2159     029D                     u2440:
  2160     029D                     l2563:
  2161                           
  2162                           ;microwave_oven.c: 60:         if(blink_pos){
  2163     029D  0838               	movf	set_time@blink_pos,w
  2164     029E  1903               	btfsc	3,2
  2165     029F  2AA1               	goto	u2451
  2166     02A0  2AA2               	goto	u2450
  2167     02A1                     u2451:
  2168     02A1  2AA6               	goto	l2569
  2169     02A2                     u2450:
  2170     02A2                     l2565:
  2171                           
  2172                           ;microwave_oven.c: 61:             min = 0;
  2173     02A2  01BA               	clrf	_min
  2174     02A3                     l2567:
  2175                           
  2176                           ;microwave_oven.c: 62:             key_count = 2;
  2177     02A3  3002               	movlw	2
  2178     02A4  00B7               	movwf	set_time@key_count
  2179                           
  2180                           ;microwave_oven.c: 63:         }
  2181     02A5  2AB8               	goto	l2577
  2182     02A6                     l2569:
  2183                           
  2184                           ;microwave_oven.c: 65:             sec = 0;
  2185     02A6  01B9               	clrf	_sec
  2186                           
  2187                           ;microwave_oven.c: 66:             key_count = 0;
  2188     02A7  01B7               	clrf	set_time@key_count
  2189     02A8  2AB8               	goto	l2577
  2190     02A9                     l2571:
  2191     02A9  3023               	movlw	35
  2192     02AA  062B               	xorwf	set_time@key,w
  2193     02AB  1D03               	btfss	3,2
  2194     02AC  2AAE               	goto	u2461
  2195     02AD  2AAF               	goto	u2460
  2196     02AE                     u2461:
  2197     02AE  2AB8               	goto	l2577
  2198     02AF                     u2460:
  2199     02AF                     l2573:
  2200                           
  2201                           ;microwave_oven.c: 73:         RC2 = 1;
  2202     02AF  1507               	bsf	7,2	;volatile
  2203                           
  2204                           ;microwave_oven.c: 76:         TMR2ON = 1 ;
  2205     02B0  1512               	bsf	18,2	;volatile
  2206                           
  2207                           ;microwave_oven.c: 78:         operational_flag = 0XDD;
  2208     02B1  30DD               	movlw	221
  2209     02B2  00BB               	movwf	_operational_flag
  2210     02B3                     l2575:
  2211                           
  2212                           ;microwave_oven.c: 79:         clear_screen();
  2213     02B3  120A  158A  25C6  120A  118A  	fcall	_clear_screen
  2214     02B8                     l2577:
  2215                           
  2216                           ;microwave_oven.c: 83:     if(blink_pos == 0){
  2217     02B8  1283               	bcf	3,5	;RP0=0, select bank0
  2218     02B9  1303               	bcf	3,6	;RP1=0, select bank0
  2219     02BA  0838               	movf	set_time@blink_pos,w
  2220     02BB  1D03               	btfss	3,2
  2221     02BC  2ABE               	goto	u2471
  2222     02BD  2ABF               	goto	u2470
  2223     02BE                     u2471:
  2224     02BE  2AD2               	goto	l2581
  2225     02BF                     u2470:
  2226     02BF                     l2579:
  2227                           
  2228                           ;microwave_oven.c: 84:         clcd_putch(' ',(0xC0 + 9));
  2229     02BF  30C9               	movlw	201
  2230     02C0  00A5               	movwf	clcd_putch@addr
  2231     02C1  3020               	movlw	32
  2232     02C2  120A  158A  25B1  120A  118A  	fcall	_clcd_putch
  2233                           
  2234                           ;microwave_oven.c: 85:         clcd_putch(' ',(0xC0 + 10));
  2235     02C7  30CA               	movlw	202
  2236     02C8  1283               	bcf	3,5	;RP0=0, select bank0
  2237     02C9  1303               	bcf	3,6	;RP1=0, select bank0
  2238     02CA  00A5               	movwf	clcd_putch@addr
  2239     02CB  3020               	movlw	32
  2240     02CC  120A  158A  25B1  120A  118A  	fcall	_clcd_putch
  2241                           
  2242                           ;microwave_oven.c: 86:     }
  2243     02D1  2AE4               	goto	l2583
  2244     02D2                     l2581:
  2245                           
  2246                           ;microwave_oven.c: 88:         clcd_putch(' ',(0xC0 + 6));
  2247     02D2  30C6               	movlw	198
  2248     02D3  00A5               	movwf	clcd_putch@addr
  2249     02D4  3020               	movlw	32
  2250     02D5  120A  158A  25B1  120A  118A  	fcall	_clcd_putch
  2251                           
  2252                           ;microwave_oven.c: 89:         clcd_putch(' ',(0xC0 + 7));
  2253     02DA  30C7               	movlw	199
  2254     02DB  1283               	bcf	3,5	;RP0=0, select bank0
  2255     02DC  1303               	bcf	3,6	;RP1=0, select bank0
  2256     02DD  00A5               	movwf	clcd_putch@addr
  2257     02DE  3020               	movlw	32
  2258     02DF  120A  158A  25B1  120A  118A  	fcall	_clcd_putch
  2259     02E4                     l2583:
  2260                           
  2261                           ;microwave_oven.c: 91:     for(unsigned char wait = 50; wait--;);
  2262     02E4  3032               	movlw	50
  2263     02E5  1283               	bcf	3,5	;RP0=0, select bank0
  2264     02E6  1303               	bcf	3,6	;RP1=0, select bank0
  2265     02E7  00AA               	movwf	set_time@wait
  2266     02E8                     l2585:
  2267     02E8  3001               	movlw	1
  2268     02E9  02AA               	subwf	set_time@wait,f
  2269     02EA  0A2A               	incf	set_time@wait,w
  2270     02EB  1D03               	btfss	3,2
  2271     02EC  2AEE               	goto	u2481
  2272     02ED  2AEF               	goto	u2480
  2273     02EE                     u2481:
  2274     02EE  2AE8               	goto	l2585
  2275     02EF                     u2480:
  2276     02EF                     l2587:
  2277                           
  2278                           ;microwave_oven.c: 93:     clcd_putch((sec/10 + '0'),(0xC0 + 9));
  2279     02EF  30C9               	movlw	201
  2280     02F0  00A5               	movwf	clcd_putch@addr
  2281     02F1  300A               	movlw	10
  2282     02F2  00F2               	movwf	___awdiv@divisor
  2283     02F3  3000               	movlw	0
  2284     02F4  00F3               	movwf	___awdiv@divisor+1
  2285     02F5  0839               	movf	_sec,w
  2286     02F6  00A8               	movwf	??_set_time
  2287     02F7  01A9               	clrf	??_set_time+1
  2288     02F8  0828               	movf	??_set_time,w
  2289     02F9  00F4               	movwf	___awdiv@dividend
  2290     02FA  0829               	movf	??_set_time+1,w
  2291     02FB  00F5               	movwf	___awdiv@dividend+1
  2292     02FC  120A  118A  2770  120A  118A  	fcall	___awdiv
  2293     0301  0872               	movf	?___awdiv,w
  2294     0302  3E30               	addlw	48
  2295     0303  120A  158A  25B1  120A  118A  	fcall	_clcd_putch
  2296                           
  2297                           ;microwave_oven.c: 94:     clcd_putch((sec%10 + '0'),(0xC0 + 10));
  2298     0308  30CA               	movlw	202
  2299     0309  1283               	bcf	3,5	;RP0=0, select bank0
  2300     030A  1303               	bcf	3,6	;RP1=0, select bank0
  2301     030B  00A5               	movwf	clcd_putch@addr
  2302     030C  300A               	movlw	10
  2303     030D  00F2               	movwf	___awmod@divisor
  2304     030E  3000               	movlw	0
  2305     030F  00F3               	movwf	___awmod@divisor+1
  2306     0310  0839               	movf	_sec,w
  2307     0311  00A8               	movwf	??_set_time
  2308     0312  01A9               	clrf	??_set_time+1
  2309     0313  0828               	movf	??_set_time,w
  2310     0314  00F4               	movwf	___awmod@dividend
  2311     0315  0829               	movf	??_set_time+1,w
  2312     0316  00F5               	movwf	___awmod@dividend+1
  2313     0317  120A  158A  27A9  120A  118A  	fcall	___awmod
  2314     031C  0872               	movf	?___awmod,w
  2315     031D  3E30               	addlw	48
  2316     031E  120A  158A  25B1  120A  118A  	fcall	_clcd_putch
  2317                           
  2318                           ;microwave_oven.c: 95:     clcd_putch(':',(0xC0 + 8));
  2319     0323  30C8               	movlw	200
  2320     0324  1283               	bcf	3,5	;RP0=0, select bank0
  2321     0325  1303               	bcf	3,6	;RP1=0, select bank0
  2322     0326  00A5               	movwf	clcd_putch@addr
  2323     0327  303A               	movlw	58
  2324     0328  120A  158A  25B1  120A  118A  	fcall	_clcd_putch
  2325                           
  2326                           ;microwave_oven.c: 96:     clcd_putch((min/10 + '0'),(0xC0 + 6));
  2327     032D  30C6               	movlw	198
  2328     032E  1283               	bcf	3,5	;RP0=0, select bank0
  2329     032F  1303               	bcf	3,6	;RP1=0, select bank0
  2330     0330  00A5               	movwf	clcd_putch@addr
  2331     0331  300A               	movlw	10
  2332     0332  00F2               	movwf	___awdiv@divisor
  2333     0333  3000               	movlw	0
  2334     0334  00F3               	movwf	___awdiv@divisor+1
  2335     0335  083A               	movf	_min,w
  2336     0336  00A8               	movwf	??_set_time
  2337     0337  01A9               	clrf	??_set_time+1
  2338     0338  0828               	movf	??_set_time,w
  2339     0339  00F4               	movwf	___awdiv@dividend
  2340     033A  0829               	movf	??_set_time+1,w
  2341     033B  00F5               	movwf	___awdiv@dividend+1
  2342     033C  120A  118A  2770  120A  118A  	fcall	___awdiv
  2343     0341  0872               	movf	?___awdiv,w
  2344     0342  3E30               	addlw	48
  2345     0343  120A  158A  25B1  120A  118A  	fcall	_clcd_putch
  2346                           
  2347                           ;microwave_oven.c: 97:     clcd_putch( (min%10 + '0'),(0xC0 + 7));
  2348     0348  30C7               	movlw	199
  2349     0349  1283               	bcf	3,5	;RP0=0, select bank0
  2350     034A  1303               	bcf	3,6	;RP1=0, select bank0
  2351     034B  00A5               	movwf	clcd_putch@addr
  2352     034C  300A               	movlw	10
  2353     034D  00F2               	movwf	___awmod@divisor
  2354     034E  3000               	movlw	0
  2355     034F  00F3               	movwf	___awmod@divisor+1
  2356     0350  083A               	movf	_min,w
  2357     0351  00A8               	movwf	??_set_time
  2358     0352  01A9               	clrf	??_set_time+1
  2359     0353  0828               	movf	??_set_time,w
  2360     0354  00F4               	movwf	___awmod@dividend
  2361     0355  0829               	movf	??_set_time+1,w
  2362     0356  00F5               	movwf	___awmod@dividend+1
  2363     0357  120A  158A  27A9  120A  118A  	fcall	___awmod
  2364     035C  0872               	movf	?___awmod,w
  2365     035D  3E30               	addlw	48
  2366     035E  120A  158A  25B1  120A  118A  	fcall	_clcd_putch
  2367     0363                     l58:
  2368     0363  0008               	return
  2369     0364                     __end_of_set_time:
  2370                           
  2371                           	psect	text3
  2372     0D9E                     __ptext3:	
  2373 ;; *************** function ___bmul *****************
  2374 ;; Defined at:
  2375 ;;		line 4 in file "C:\Program Files\Microchip\xc8\v3.00\pic\sources\c99\common\Umul8.c"
  2376 ;; Parameters:    Size  Location     Type
  2377 ;;  multiplier      1    wreg     unsigned char 
  2378 ;;  multiplicand    1    2[COMMON] unsigned char 
  2379 ;; Auto vars:     Size  Location     Type
  2380 ;;  multiplier      1    4[COMMON] unsigned char 
  2381 ;;  product         1    3[COMMON] unsigned char 
  2382 ;; Return value:  Size  Location     Type
  2383 ;;                  1    wreg      unsigned char 
  2384 ;; Registers used:
  2385 ;;		wreg, status,2, status,0
  2386 ;; Tracked objects:
  2387 ;;		On entry : 0/0
  2388 ;;		On exit  : 0/0
  2389 ;;		Unchanged: 0/0
  2390 ;; Data sizes:     COMMON   BANK0   BANK1   BANK3   BANK2
  2391 ;;      Params:         1       0       0       0       0
  2392 ;;      Locals:         2       0       0       0       0
  2393 ;;      Temps:          0       0       0       0       0
  2394 ;;      Totals:         3       0       0       0       0
  2395 ;;Total ram usage:        3 bytes
  2396 ;; Hardware stack levels used: 1
  2397 ;; Hardware stack levels required when called: 1
  2398 ;; This function calls:
  2399 ;;		Nothing
  2400 ;; This function is called by:
  2401 ;;		_set_time
  2402 ;; This function uses a non-reentrant model
  2403 ;;
  2404                           
  2405     0D9E                     ___bmul:	
  2406                           ;psect for function ___bmul
  2407                           
  2408                           
  2409                           ;incstack = 0
  2410                           ; Regs used in ___bmul: [wreg+status,2+status,0]
  2411                           ;___bmul@multiplier stored from wreg
  2412     0D9E  00F4               	movwf	___bmul@multiplier
  2413     0D9F                     l2089:
  2414     0D9F  01F3               	clrf	___bmul@product
  2415     0DA0                     l2091:
  2416     0DA0  1C74               	btfss	___bmul@multiplier,0
  2417     0DA1  2DA3               	goto	u1641
  2418     0DA2  2DA4               	goto	u1640
  2419     0DA3                     u1641:
  2420     0DA3  2DA6               	goto	l2095
  2421     0DA4                     u1640:
  2422     0DA4                     l2093:
  2423     0DA4  0872               	movf	___bmul@multiplicand,w
  2424     0DA5  07F3               	addwf	___bmul@product,f
  2425     0DA6                     l2095:
  2426     0DA6  1003               	clrc
  2427     0DA7  0DF2               	rlf	___bmul@multiplicand,f
  2428     0DA8                     l2097:
  2429     0DA8  1003               	clrc
  2430     0DA9  0CF4               	rrf	___bmul@multiplier,f
  2431     0DAA  0874               	movf	___bmul@multiplier,w
  2432     0DAB  1D03               	btfss	3,2
  2433     0DAC  2DAE               	goto	u1651
  2434     0DAD  2DAF               	goto	u1650
  2435     0DAE                     u1651:
  2436     0DAE  2DA0               	goto	l2091
  2437     0DAF                     u1650:
  2438     0DAF                     l2099:
  2439     0DAF  0873               	movf	___bmul@product,w
  2440     0DB0                     l439:
  2441     0DB0  0008               	return
  2442     0DB1                     __end_of___bmul:
  2443                           
  2444                           	psect	text4
  2445     0FA9                     __ptext4:	
  2446 ;; *************** function ___awmod *****************
  2447 ;; Defined at:
  2448 ;;		line 5 in file "C:\Program Files\Microchip\xc8\v3.00\pic\sources\c99\common\awmod.c"
  2449 ;; Parameters:    Size  Location     Type
  2450 ;;  divisor         2    2[COMMON] int 
  2451 ;;  dividend        2    4[COMMON] int 
  2452 ;; Auto vars:     Size  Location     Type
  2453 ;;  sign            1    7[COMMON] unsigned char 
  2454 ;;  counter         1    6[COMMON] unsigned char 
  2455 ;; Return value:  Size  Location     Type
  2456 ;;                  2    2[COMMON] int 
  2457 ;; Registers used:
  2458 ;;		wreg, status,2, status,0
  2459 ;; Tracked objects:
  2460 ;;		On entry : 0/0
  2461 ;;		On exit  : 0/0
  2462 ;;		Unchanged: 0/0
  2463 ;; Data sizes:     COMMON   BANK0   BANK1   BANK3   BANK2
  2464 ;;      Params:         4       0       0       0       0
  2465 ;;      Locals:         2       0       0       0       0
  2466 ;;      Temps:          0       0       0       0       0
  2467 ;;      Totals:         6       0       0       0       0
  2468 ;;Total ram usage:        6 bytes
  2469 ;; Hardware stack levels used: 1
  2470 ;; Hardware stack levels required when called: 1
  2471 ;; This function calls:
  2472 ;;		Nothing
  2473 ;; This function is called by:
  2474 ;;		_set_time
  2475 ;;		_time_display
  2476 ;; This function uses a non-reentrant model
  2477 ;;
  2478                           
  2479     0FA9                     ___awmod:	
  2480                           ;psect for function ___awmod
  2481                           
  2482     0FA9                     l2147:	
  2483                           ;incstack = 0
  2484                           ; Regs used in ___awmod: [wreg+status,2+status,0]
  2485                           
  2486     0FA9  01F7               	clrf	___awmod@sign
  2487     0FAA                     l2149:
  2488     0FAA  1FF5               	btfss	___awmod@dividend+1,7
  2489     0FAB  2FAD               	goto	u1761
  2490     0FAC  2FAE               	goto	u1760
  2491     0FAD                     u1761:
  2492     0FAD  2FB5               	goto	l2155
  2493     0FAE                     u1760:
  2494     0FAE                     l2151:
  2495     0FAE  09F4               	comf	___awmod@dividend,f
  2496     0FAF  09F5               	comf	___awmod@dividend+1,f
  2497     0FB0  0AF4               	incf	___awmod@dividend,f
  2498     0FB1  1903               	skipnz
  2499     0FB2  0AF5               	incf	___awmod@dividend+1,f
  2500     0FB3                     l2153:
  2501     0FB3  3001               	movlw	1
  2502     0FB4  00F7               	movwf	___awmod@sign
  2503     0FB5                     l2155:
  2504     0FB5  1FF3               	btfss	___awmod@divisor+1,7
  2505     0FB6  2FB8               	goto	u1771
  2506     0FB7  2FB9               	goto	u1770
  2507     0FB8                     u1771:
  2508     0FB8  2FBE               	goto	l2159
  2509     0FB9                     u1770:
  2510     0FB9                     l2157:
  2511     0FB9  09F2               	comf	___awmod@divisor,f
  2512     0FBA  09F3               	comf	___awmod@divisor+1,f
  2513     0FBB  0AF2               	incf	___awmod@divisor,f
  2514     0FBC  1903               	skipnz
  2515     0FBD  0AF3               	incf	___awmod@divisor+1,f
  2516     0FBE                     l2159:
  2517     0FBE  0872               	movf	___awmod@divisor,w
  2518     0FBF  0473               	iorwf	___awmod@divisor+1,w
  2519     0FC0  1903               	btfsc	3,2
  2520     0FC1  2FC3               	goto	u1781
  2521     0FC2  2FC4               	goto	u1780
  2522     0FC3                     u1781:
  2523     0FC3  2FF1               	goto	l2177
  2524     0FC4                     u1780:
  2525     0FC4                     l2161:
  2526     0FC4  3001               	movlw	1
  2527     0FC5  00F6               	movwf	___awmod@counter
  2528     0FC6  2FD0               	goto	l2167
  2529     0FC7                     l2163:
  2530     0FC7  3001               	movlw	1
  2531     0FC8                     u1795:
  2532     0FC8  1003               	clrc
  2533     0FC9  0DF2               	rlf	___awmod@divisor,f
  2534     0FCA  0DF3               	rlf	___awmod@divisor+1,f
  2535     0FCB  3EFF               	addlw	-1
  2536     0FCC  1D03               	skipz
  2537     0FCD  2FC8               	goto	u1795
  2538     0FCE                     l2165:
  2539     0FCE  3001               	movlw	1
  2540     0FCF  07F6               	addwf	___awmod@counter,f
  2541     0FD0                     l2167:
  2542     0FD0  1FF3               	btfss	___awmod@divisor+1,7
  2543     0FD1  2FD3               	goto	u1801
  2544     0FD2  2FD4               	goto	u1800
  2545     0FD3                     u1801:
  2546     0FD3  2FC7               	goto	l2163
  2547     0FD4                     u1800:
  2548     0FD4                     l2169:
  2549     0FD4  0873               	movf	___awmod@divisor+1,w
  2550     0FD5  0275               	subwf	___awmod@dividend+1,w
  2551     0FD6  1D03               	skipz
  2552     0FD7  2FDA               	goto	u1815
  2553     0FD8  0872               	movf	___awmod@divisor,w
  2554     0FD9  0274               	subwf	___awmod@dividend,w
  2555     0FDA                     u1815:
  2556     0FDA  1C03               	skipc
  2557     0FDB  2FDD               	goto	u1811
  2558     0FDC  2FDE               	goto	u1810
  2559     0FDD                     u1811:
  2560     0FDD  2FE4               	goto	l2173
  2561     0FDE                     u1810:
  2562     0FDE                     l2171:
  2563     0FDE  0872               	movf	___awmod@divisor,w
  2564     0FDF  02F4               	subwf	___awmod@dividend,f
  2565     0FE0  0873               	movf	___awmod@divisor+1,w
  2566     0FE1  1C03               	skipc
  2567     0FE2  03F5               	decf	___awmod@dividend+1,f
  2568     0FE3  02F5               	subwf	___awmod@dividend+1,f
  2569     0FE4                     l2173:
  2570     0FE4  3001               	movlw	1
  2571     0FE5                     u1825:
  2572     0FE5  1003               	clrc
  2573     0FE6  0CF3               	rrf	___awmod@divisor+1,f
  2574     0FE7  0CF2               	rrf	___awmod@divisor,f
  2575     0FE8  3EFF               	addlw	-1
  2576     0FE9  1D03               	skipz
  2577     0FEA  2FE5               	goto	u1825
  2578     0FEB                     l2175:
  2579     0FEB  3001               	movlw	1
  2580     0FEC  02F6               	subwf	___awmod@counter,f
  2581     0FED  1D03               	btfss	3,2
  2582     0FEE  2FF0               	goto	u1831
  2583     0FEF  2FF1               	goto	u1830
  2584     0FF0                     u1831:
  2585     0FF0  2FD4               	goto	l2169
  2586     0FF1                     u1830:
  2587     0FF1                     l2177:
  2588     0FF1  0877               	movf	___awmod@sign,w
  2589     0FF2  1903               	btfsc	3,2
  2590     0FF3  2FF5               	goto	u1841
  2591     0FF4  2FF6               	goto	u1840
  2592     0FF5                     u1841:
  2593     0FF5  2FFB               	goto	l2181
  2594     0FF6                     u1840:
  2595     0FF6                     l2179:
  2596     0FF6  09F4               	comf	___awmod@dividend,f
  2597     0FF7  09F5               	comf	___awmod@dividend+1,f
  2598     0FF8  0AF4               	incf	___awmod@dividend,f
  2599     0FF9  1903               	skipnz
  2600     0FFA  0AF5               	incf	___awmod@dividend+1,f
  2601     0FFB                     l2181:
  2602     0FFB  0875               	movf	___awmod@dividend+1,w
  2603     0FFC  00F3               	movwf	?___awmod+1
  2604     0FFD  0874               	movf	___awmod@dividend,w
  2605     0FFE  00F2               	movwf	?___awmod
  2606     0FFF                     l579:
  2607     0FFF  0008               	return
  2608     1000                     __end_of___awmod:
  2609                           
  2610                           	psect	text5
  2611     0770                     __ptext5:	
  2612 ;; *************** function ___awdiv *****************
  2613 ;; Defined at:
  2614 ;;		line 5 in file "C:\Program Files\Microchip\xc8\v3.00\pic\sources\c99\common\awdiv.c"
  2615 ;; Parameters:    Size  Location     Type
  2616 ;;  divisor         2    2[COMMON] int 
  2617 ;;  dividend        2    4[COMMON] int 
  2618 ;; Auto vars:     Size  Location     Type
  2619 ;;  quotient        2    2[BANK0 ] int 
  2620 ;;  sign            1    1[BANK0 ] unsigned char 
  2621 ;;  counter         1    0[BANK0 ] unsigned char 
  2622 ;; Return value:  Size  Location     Type
  2623 ;;                  2    2[COMMON] int 
  2624 ;; Registers used:
  2625 ;;		wreg, status,2, status,0
  2626 ;; Tracked objects:
  2627 ;;		On entry : 0/0
  2628 ;;		On exit  : 0/0
  2629 ;;		Unchanged: 0/0
  2630 ;; Data sizes:     COMMON   BANK0   BANK1   BANK3   BANK2
  2631 ;;      Params:         4       0       0       0       0
  2632 ;;      Locals:         0       4       0       0       0
  2633 ;;      Temps:          0       0       0       0       0
  2634 ;;      Totals:         4       4       0       0       0
  2635 ;;Total ram usage:        8 bytes
  2636 ;; Hardware stack levels used: 1
  2637 ;; Hardware stack levels required when called: 1
  2638 ;; This function calls:
  2639 ;;		Nothing
  2640 ;; This function is called by:
  2641 ;;		_set_time
  2642 ;;		_time_display
  2643 ;; This function uses a non-reentrant model
  2644 ;;
  2645                           
  2646     0770                     ___awdiv:	
  2647                           ;psect for function ___awdiv
  2648                           
  2649     0770                     l2485:	
  2650                           ;incstack = 0
  2651                           ; Regs used in ___awdiv: [wreg+status,2+status,0]
  2652                           
  2653     0770  1283               	bcf	3,5	;RP0=0, select bank0
  2654     0771  1303               	bcf	3,6	;RP1=0, select bank0
  2655     0772  01A1               	clrf	___awdiv@sign
  2656     0773                     l2487:
  2657     0773  1FF3               	btfss	___awdiv@divisor+1,7
  2658     0774  2F76               	goto	u2281
  2659     0775  2F77               	goto	u2280
  2660     0776                     u2281:
  2661     0776  2F7E               	goto	l2493
  2662     0777                     u2280:
  2663     0777                     l2489:
  2664     0777  09F2               	comf	___awdiv@divisor,f
  2665     0778  09F3               	comf	___awdiv@divisor+1,f
  2666     0779  0AF2               	incf	___awdiv@divisor,f
  2667     077A  1903               	skipnz
  2668     077B  0AF3               	incf	___awdiv@divisor+1,f
  2669     077C                     l2491:
  2670     077C  3001               	movlw	1
  2671     077D  00A1               	movwf	___awdiv@sign
  2672     077E                     l2493:
  2673     077E  1FF5               	btfss	___awdiv@dividend+1,7
  2674     077F  2F81               	goto	u2291
  2675     0780  2F82               	goto	u2290
  2676     0781                     u2291:
  2677     0781  2F89               	goto	l2499
  2678     0782                     u2290:
  2679     0782                     l2495:
  2680     0782  09F4               	comf	___awdiv@dividend,f
  2681     0783  09F5               	comf	___awdiv@dividend+1,f
  2682     0784  0AF4               	incf	___awdiv@dividend,f
  2683     0785  1903               	skipnz
  2684     0786  0AF5               	incf	___awdiv@dividend+1,f
  2685     0787                     l2497:
  2686     0787  3001               	movlw	1
  2687     0788  06A1               	xorwf	___awdiv@sign,f
  2688     0789                     l2499:
  2689     0789  01A2               	clrf	___awdiv@quotient
  2690     078A  01A3               	clrf	___awdiv@quotient+1
  2691     078B                     l2501:
  2692     078B  0872               	movf	___awdiv@divisor,w
  2693     078C  0473               	iorwf	___awdiv@divisor+1,w
  2694     078D  1903               	btfsc	3,2
  2695     078E  2F90               	goto	u2301
  2696     078F  2F91               	goto	u2300
  2697     0790                     u2301:
  2698     0790  2FC6               	goto	l2521
  2699     0791                     u2300:
  2700     0791                     l2503:
  2701     0791  3001               	movlw	1
  2702     0792  00A0               	movwf	___awdiv@counter
  2703     0793  2F9D               	goto	l2509
  2704     0794                     l2505:
  2705     0794  3001               	movlw	1
  2706     0795                     u2315:
  2707     0795  1003               	clrc
  2708     0796  0DF2               	rlf	___awdiv@divisor,f
  2709     0797  0DF3               	rlf	___awdiv@divisor+1,f
  2710     0798  3EFF               	addlw	-1
  2711     0799  1D03               	skipz
  2712     079A  2F95               	goto	u2315
  2713     079B                     l2507:
  2714     079B  3001               	movlw	1
  2715     079C  07A0               	addwf	___awdiv@counter,f
  2716     079D                     l2509:
  2717     079D  1FF3               	btfss	___awdiv@divisor+1,7
  2718     079E  2FA0               	goto	u2321
  2719     079F  2FA1               	goto	u2320
  2720     07A0                     u2321:
  2721     07A0  2F94               	goto	l2505
  2722     07A1                     u2320:
  2723     07A1                     l2511:
  2724     07A1  3001               	movlw	1
  2725     07A2                     u2335:
  2726     07A2  1003               	clrc
  2727     07A3  0DA2               	rlf	___awdiv@quotient,f
  2728     07A4  0DA3               	rlf	___awdiv@quotient+1,f
  2729     07A5  3EFF               	addlw	-1
  2730     07A6  1D03               	skipz
  2731     07A7  2FA2               	goto	u2335
  2732     07A8  0873               	movf	___awdiv@divisor+1,w
  2733     07A9  0275               	subwf	___awdiv@dividend+1,w
  2734     07AA  1D03               	skipz
  2735     07AB  2FAE               	goto	u2345
  2736     07AC  0872               	movf	___awdiv@divisor,w
  2737     07AD  0274               	subwf	___awdiv@dividend,w
  2738     07AE                     u2345:
  2739     07AE  1C03               	skipc
  2740     07AF  2FB1               	goto	u2341
  2741     07B0  2FB2               	goto	u2340
  2742     07B1                     u2341:
  2743     07B1  2FB9               	goto	l2517
  2744     07B2                     u2340:
  2745     07B2                     l2513:
  2746     07B2  0872               	movf	___awdiv@divisor,w
  2747     07B3  02F4               	subwf	___awdiv@dividend,f
  2748     07B4  0873               	movf	___awdiv@divisor+1,w
  2749     07B5  1C03               	skipc
  2750     07B6  03F5               	decf	___awdiv@dividend+1,f
  2751     07B7  02F5               	subwf	___awdiv@dividend+1,f
  2752     07B8                     l2515:
  2753     07B8  1422               	bsf	___awdiv@quotient,0
  2754     07B9                     l2517:
  2755     07B9  3001               	movlw	1
  2756     07BA                     u2355:
  2757     07BA  1003               	clrc
  2758     07BB  0CF3               	rrf	___awdiv@divisor+1,f
  2759     07BC  0CF2               	rrf	___awdiv@divisor,f
  2760     07BD  3EFF               	addlw	-1
  2761     07BE  1D03               	skipz
  2762     07BF  2FBA               	goto	u2355
  2763     07C0                     l2519:
  2764     07C0  3001               	movlw	1
  2765     07C1  02A0               	subwf	___awdiv@counter,f
  2766     07C2  1D03               	btfss	3,2
  2767     07C3  2FC5               	goto	u2361
  2768     07C4  2FC6               	goto	u2360
  2769     07C5                     u2361:
  2770     07C5  2FA1               	goto	l2511
  2771     07C6                     u2360:
  2772     07C6                     l2521:
  2773     07C6  0821               	movf	___awdiv@sign,w
  2774     07C7  1903               	btfsc	3,2
  2775     07C8  2FCA               	goto	u2371
  2776     07C9  2FCB               	goto	u2370
  2777     07CA                     u2371:
  2778     07CA  2FD0               	goto	l2525
  2779     07CB                     u2370:
  2780     07CB                     l2523:
  2781     07CB  09A2               	comf	___awdiv@quotient,f
  2782     07CC  09A3               	comf	___awdiv@quotient+1,f
  2783     07CD  0AA2               	incf	___awdiv@quotient,f
  2784     07CE  1903               	skipnz
  2785     07CF  0AA3               	incf	___awdiv@quotient+1,f
  2786     07D0                     l2525:
  2787     07D0  0823               	movf	___awdiv@quotient+1,w
  2788     07D1  00F3               	movwf	?___awdiv+1
  2789     07D2  0822               	movf	___awdiv@quotient,w
  2790     07D3  00F2               	movwf	?___awdiv
  2791     07D4                     l566:
  2792     07D4  0008               	return
  2793     07D5                     __end_of___awdiv:
  2794                           
  2795                           	psect	text6
  2796     002B                     __ptext6:	
  2797 ;; *************** function _set_temp *****************
  2798 ;; Defined at:
  2799 ;;		line 139 in file "microwave_oven.c"
  2800 ;; Parameters:    Size  Location     Type
  2801 ;;  key             1    wreg     unsigned char 
  2802 ;;  reset_flag      1    7[BANK0 ] unsigned char 
  2803 ;; Auto vars:     Size  Location     Type
  2804 ;;  key             1   10[BANK0 ] unsigned char 
  2805 ;;  wait            1    9[BANK0 ] unsigned char 
  2806 ;;  wait            1    8[BANK0 ] unsigned char 
  2807 ;; Return value:  Size  Location     Type
  2808 ;;                  1    wreg      void 
  2809 ;; Registers used:
  2810 ;;		wreg, fsr0l, fsr0h, status,2, status,0, pclath, cstack
  2811 ;; Tracked objects:
  2812 ;;		On entry : 0/0
  2813 ;;		On exit  : 0/0
  2814 ;;		Unchanged: 0/0
  2815 ;; Data sizes:     COMMON   BANK0   BANK1   BANK3   BANK2
  2816 ;;      Params:         0       1       0       0       0
  2817 ;;      Locals:         0       3       0       0       0
  2818 ;;      Temps:          0       0       0       0       0
  2819 ;;      Totals:         0       4       0       0       0
  2820 ;;Total ram usage:        4 bytes
  2821 ;; Hardware stack levels used: 1
  2822 ;; Hardware stack levels required when called: 3
  2823 ;; This function calls:
  2824 ;;		___lwdiv
  2825 ;;		___lwmod
  2826 ;;		___wmul
  2827 ;;		_clcd_print
  2828 ;;		_clcd_putch
  2829 ;;		_clear_screen
  2830 ;; This function is called by:
  2831 ;;		_main
  2832 ;; This function uses a non-reentrant model
  2833 ;;
  2834                           
  2835     002B                     _set_temp:	
  2836                           ;psect for function _set_temp
  2837                           
  2838                           
  2839                           ;incstack = 0
  2840                           ; Regs used in _set_temp: [wreg-fsr0h+status,2+status,0+pclath+cstack]
  2841                           ;set_temp@key stored from wreg
  2842     002B  1283               	bcf	3,5	;RP0=0, select bank0
  2843     002C  1303               	bcf	3,6	;RP1=0, select bank0
  2844     002D  00AA               	movwf	set_temp@key
  2845     002E                     l2307:
  2846                           
  2847                           ;microwave_oven.c: 139: void set_temp(unsigned char key, unsigned char reset_flag);micro
      +                          wave_oven.c: 140: {;microwave_oven.c: 141:     static unsigned char key_count;;microwave
      +                          _oven.c: 142:     static unsigned int temp;;microwave_oven.c: 145:     if(reset_flag == 
      +                          0XFF){
  2848     002E  0A27               	incf	set_temp@reset_flag,w
  2849     002F  1D03               	btfss	3,2
  2850     0030  2832               	goto	u2041
  2851     0031  2833               	goto	u2040
  2852     0032                     u2041:
  2853     0032  2838               	goto	l2313
  2854     0033                     u2040:
  2855     0033                     l2309:
  2856                           
  2857                           ;microwave_oven.c: 146:         key =0xFF;
  2858     0033  30FF               	movlw	255
  2859     0034  00AA               	movwf	set_temp@key
  2860     0035                     l2311:
  2861                           
  2862                           ;microwave_oven.c: 147:         temp = 0;
  2863     0035  01B1               	clrf	set_temp@temp
  2864     0036  01B2               	clrf	set_temp@temp+1
  2865                           
  2866                           ;microwave_oven.c: 148:         key_count = 0;
  2867     0037  01B6               	clrf	set_temp@key_count
  2868     0038                     l2313:
  2869                           
  2870                           ;microwave_oven.c: 150:     clcd_print("SET TEMP <*C>", (0x80 + 0));
  2871     0038  3050               	movlw	(low ((STR_16-__stringbase)| (0+32768)))& (0+255)
  2872     0039  00F6               	movwf	clcd_print@str
  2873     003A  3080               	movlw	128
  2874     003B  00F7               	movwf	clcd_print@addr
  2875     003C  120A  158A  261C  120A  118A  	fcall	_clcd_print
  2876     0041                     l2315:
  2877                           
  2878                           ;microwave_oven.c: 151:     clcd_print("TEMP -",(0xC0 + 0));
  2879     0041  30D4               	movlw	(low ((STR_17-__stringbase)| (0+32768)))& (0+255)
  2880     0042  00F6               	movwf	clcd_print@str
  2881     0043  30C0               	movlw	192
  2882     0044  00F7               	movwf	clcd_print@addr
  2883     0045  120A  158A  261C  120A  118A  	fcall	_clcd_print
  2884     004A                     l2317:
  2885                           
  2886                           ;microwave_oven.c: 152:     clcd_print("*:CLEAR  #:ENTER",(0xD0 + 0));
  2887     004A  3001               	movlw	(low ((STR_9-__stringbase)| (0+32768)))& (0+255)
  2888     004B  00F6               	movwf	clcd_print@str
  2889     004C  30D0               	movlw	208
  2890     004D  00F7               	movwf	clcd_print@addr
  2891     004E  120A  158A  261C  120A  118A  	fcall	_clcd_print
  2892     0053                     l2319:
  2893                           
  2894                           ;microwave_oven.c: 153:     clcd_putch(' ',(0xC0 + 8));
  2895     0053  30C8               	movlw	200
  2896     0054  1283               	bcf	3,5	;RP0=0, select bank0
  2897     0055  1303               	bcf	3,6	;RP1=0, select bank0
  2898     0056  00A5               	movwf	clcd_putch@addr
  2899     0057  3020               	movlw	32
  2900     0058  120A  158A  25B1  120A  118A  	fcall	_clcd_putch
  2901     005D                     l2321:
  2902                           
  2903                           ;microwave_oven.c: 154:     clcd_putch(' ',(0xC0 + 9));
  2904     005D  30C9               	movlw	201
  2905     005E  1283               	bcf	3,5	;RP0=0, select bank0
  2906     005F  1303               	bcf	3,6	;RP1=0, select bank0
  2907     0060  00A5               	movwf	clcd_putch@addr
  2908     0061  3020               	movlw	32
  2909     0062  120A  158A  25B1  120A  118A  	fcall	_clcd_putch
  2910     0067                     l2323:
  2911                           
  2912                           ;microwave_oven.c: 155:     clcd_putch(' ',(0xC0 + 10));
  2913     0067  30CA               	movlw	202
  2914     0068  1283               	bcf	3,5	;RP0=0, select bank0
  2915     0069  1303               	bcf	3,6	;RP1=0, select bank0
  2916     006A  00A5               	movwf	clcd_putch@addr
  2917     006B  3020               	movlw	32
  2918     006C  120A  158A  25B1  120A  118A  	fcall	_clcd_putch
  2919     0071                     l2325:
  2920                           
  2921                           ;microwave_oven.c: 156:     for (unsigned char wait =50 ;wait--;);
  2922     0071  3032               	movlw	50
  2923     0072  1283               	bcf	3,5	;RP0=0, select bank0
  2924     0073  1303               	bcf	3,6	;RP1=0, select bank0
  2925     0074  00A8               	movwf	set_temp@wait
  2926     0075                     l2327:
  2927     0075  3001               	movlw	1
  2928     0076  02A8               	subwf	set_temp@wait,f
  2929     0077  0A28               	incf	set_temp@wait,w
  2930     0078  1D03               	btfss	3,2
  2931     0079  287B               	goto	u2051
  2932     007A  287C               	goto	u2050
  2933     007B                     u2051:
  2934     007B  2875               	goto	l2327
  2935     007C                     u2050:
  2936     007C                     l2329:
  2937                           
  2938                           ;microwave_oven.c: 158:         clcd_putch(((temp/100)+ '0'),(0xC0 + 8));
  2939     007C  30C8               	movlw	200
  2940     007D  00A5               	movwf	clcd_putch@addr
  2941     007E  3064               	movlw	100
  2942     007F  00F2               	movwf	___lwdiv@divisor
  2943     0080  3000               	movlw	0
  2944     0081  00F3               	movwf	___lwdiv@divisor+1
  2945     0082  0832               	movf	set_temp@temp+1,w
  2946     0083  00F5               	movwf	___lwdiv@dividend+1
  2947     0084  0831               	movf	set_temp@temp,w
  2948     0085  00F4               	movwf	___lwdiv@dividend
  2949     0086  120A  158A  2718  120A  118A  	fcall	___lwdiv
  2950     008B  0872               	movf	?___lwdiv,w
  2951     008C  3E30               	addlw	48
  2952     008D  120A  158A  25B1  120A  118A  	fcall	_clcd_putch
  2953                           
  2954                           ;microwave_oven.c: 159:         clcd_putch(((temp/10) % 10+ '0'),(0xC0 + 9));
  2955     0092  30C9               	movlw	201
  2956     0093  1283               	bcf	3,5	;RP0=0, select bank0
  2957     0094  1303               	bcf	3,6	;RP1=0, select bank0
  2958     0095  00A5               	movwf	clcd_putch@addr
  2959     0096  300A               	movlw	10
  2960     0097  00A0               	movwf	___lwmod@divisor
  2961     0098  3000               	movlw	0
  2962     0099  00A1               	movwf	___lwmod@divisor+1
  2963     009A  300A               	movlw	10
  2964     009B  00F2               	movwf	___lwdiv@divisor
  2965     009C  3000               	movlw	0
  2966     009D  00F3               	movwf	___lwdiv@divisor+1
  2967     009E  0832               	movf	set_temp@temp+1,w
  2968     009F  00F5               	movwf	___lwdiv@dividend+1
  2969     00A0  0831               	movf	set_temp@temp,w
  2970     00A1  00F4               	movwf	___lwdiv@dividend
  2971     00A2  120A  158A  2718  120A  118A  	fcall	___lwdiv
  2972     00A7  0873               	movf	?___lwdiv+1,w
  2973     00A8  1283               	bcf	3,5	;RP0=0, select bank0
  2974     00A9  1303               	bcf	3,6	;RP1=0, select bank0
  2975     00AA  00A3               	movwf	___lwmod@dividend+1
  2976     00AB  0872               	movf	?___lwdiv,w
  2977     00AC  00A2               	movwf	___lwmod@dividend
  2978     00AD  120A  158A  269C  120A  118A  	fcall	___lwmod
  2979     00B2  1283               	bcf	3,5	;RP0=0, select bank0
  2980     00B3  1303               	bcf	3,6	;RP1=0, select bank0
  2981     00B4  0820               	movf	?___lwmod,w
  2982     00B5  3E30               	addlw	48
  2983     00B6  120A  158A  25B1  120A  118A  	fcall	_clcd_putch
  2984                           
  2985                           ;microwave_oven.c: 160:         clcd_putch((temp % 10 + '0'),(0xC0 + 10));
  2986     00BB  30CA               	movlw	202
  2987     00BC  1283               	bcf	3,5	;RP0=0, select bank0
  2988     00BD  1303               	bcf	3,6	;RP1=0, select bank0
  2989     00BE  00A5               	movwf	clcd_putch@addr
  2990     00BF  300A               	movlw	10
  2991     00C0  00A0               	movwf	___lwmod@divisor
  2992     00C1  3000               	movlw	0
  2993     00C2  00A1               	movwf	___lwmod@divisor+1
  2994     00C3  0832               	movf	set_temp@temp+1,w
  2995     00C4  00A3               	movwf	___lwmod@dividend+1
  2996     00C5  0831               	movf	set_temp@temp,w
  2997     00C6  00A2               	movwf	___lwmod@dividend
  2998     00C7  120A  158A  269C  120A  118A  	fcall	___lwmod
  2999     00CC  1283               	bcf	3,5	;RP0=0, select bank0
  3000     00CD  1303               	bcf	3,6	;RP1=0, select bank0
  3001     00CE  0820               	movf	?___lwmod,w
  3002     00CF  3E30               	addlw	48
  3003     00D0  120A  158A  25B1  120A  118A  	fcall	_clcd_putch
  3004     00D5                     l2331:
  3005                           
  3006                           ;microwave_oven.c: 166:     if( key !='*' && key !='#' && key != 0xFF){
  3007     00D5  302A               	movlw	42
  3008     00D6  1283               	bcf	3,5	;RP0=0, select bank0
  3009     00D7  1303               	bcf	3,6	;RP1=0, select bank0
  3010     00D8  062A               	xorwf	set_temp@key,w
  3011     00D9  1903               	btfsc	3,2
  3012     00DA  28DC               	goto	u2061
  3013     00DB  28DD               	goto	u2060
  3014     00DC                     u2061:
  3015     00DC  2908               	goto	l2343
  3016     00DD                     u2060:
  3017     00DD                     l2333:
  3018     00DD  3023               	movlw	35
  3019     00DE  062A               	xorwf	set_temp@key,w
  3020     00DF  1903               	btfsc	3,2
  3021     00E0  28E2               	goto	u2071
  3022     00E1  28E3               	goto	u2070
  3023     00E2                     u2071:
  3024     00E2  2908               	goto	l2343
  3025     00E3                     u2070:
  3026     00E3                     l2335:
  3027     00E3  0A2A               	incf	set_temp@key,w
  3028     00E4  1903               	btfsc	3,2
  3029     00E5  28E7               	goto	u2081
  3030     00E6  28E8               	goto	u2080
  3031     00E7                     u2081:
  3032     00E7  2908               	goto	l2343
  3033     00E8                     u2080:
  3034     00E8                     l2337:
  3035                           
  3036                           ;microwave_oven.c: 167:         if(key_count < 3){
  3037     00E8  3003               	movlw	3
  3038     00E9  0236               	subwf	set_temp@key_count,w
  3039     00EA  1803               	skipnc
  3040     00EB  28ED               	goto	u2091
  3041     00EC  28EE               	goto	u2090
  3042     00ED                     u2091:
  3043     00ED  29B1               	goto	l2369
  3044     00EE                     u2090:
  3045     00EE                     l2339:
  3046                           
  3047                           ;microwave_oven.c: 168:             temp = temp * 10 + key;
  3048     00EE  0832               	movf	set_temp@temp+1,w
  3049     00EF  00F3               	movwf	___wmul@multiplier+1
  3050     00F0  0831               	movf	set_temp@temp,w
  3051     00F1  00F2               	movwf	___wmul@multiplier
  3052     00F2  300A               	movlw	10
  3053     00F3  00F4               	movwf	___wmul@multiplicand
  3054     00F4  3000               	movlw	0
  3055     00F5  00F5               	movwf	___wmul@multiplicand+1
  3056     00F6  120A  118A  27D5  120A  118A  	fcall	___wmul
  3057     00FB  1283               	bcf	3,5	;RP0=0, select bank0
  3058     00FC  1303               	bcf	3,6	;RP1=0, select bank0
  3059     00FD  082A               	movf	set_temp@key,w
  3060     00FE  0772               	addwf	?___wmul,w
  3061     00FF  00B1               	movwf	set_temp@temp
  3062     0100  3000               	movlw	0
  3063     0101  1803               	skipnc
  3064     0102  3001               	movlw	1
  3065     0103  0773               	addwf	?___wmul+1,w
  3066     0104  00B2               	movwf	set_temp@temp+1
  3067     0105                     l2341:
  3068                           
  3069                           ;microwave_oven.c: 169:             key_count++;
  3070     0105  3001               	movlw	1
  3071     0106  07B6               	addwf	set_temp@key_count,f
  3072     0107  29B1               	goto	l2369
  3073     0108                     l2343:
  3074     0108  302A               	movlw	42
  3075     0109  062A               	xorwf	set_temp@key,w
  3076     010A  1D03               	btfss	3,2
  3077     010B  290D               	goto	u2101
  3078     010C  290E               	goto	u2100
  3079     010D                     u2101:
  3080     010D  2912               	goto	l2347
  3081     010E                     u2100:
  3082     010E                     l2345:
  3083                           
  3084                           ;microwave_oven.c: 173:     {;microwave_oven.c: 174:         temp = 0;
  3085     010E  01B1               	clrf	set_temp@temp
  3086     010F  01B2               	clrf	set_temp@temp+1
  3087                           
  3088                           ;microwave_oven.c: 175:         key_count = 0;
  3089     0110  01B6               	clrf	set_temp@key_count
  3090                           
  3091                           ;microwave_oven.c: 177:     }
  3092     0111  29B1               	goto	l2369
  3093     0112                     l2347:
  3094     0112  3023               	movlw	35
  3095     0113  062A               	xorwf	set_temp@key,w
  3096     0114  1D03               	btfss	3,2
  3097     0115  2917               	goto	u2111
  3098     0116  2918               	goto	u2110
  3099     0117                     u2111:
  3100     0117  29B1               	goto	l2369
  3101     0118                     u2110:
  3102     0118                     l2349:
  3103                           
  3104                           ;microwave_oven.c: 179:         if(temp > 180){
  3105     0118  3000               	movlw	0
  3106     0119  0232               	subwf	set_temp@temp+1,w
  3107     011A  30B5               	movlw	181
  3108     011B  1903               	skipnz
  3109     011C  0231               	subwf	set_temp@temp,w
  3110     011D  1C03               	skipc
  3111     011E  2920               	goto	u2121
  3112     011F  2921               	goto	u2120
  3113     0120                     u2121:
  3114     0120  2925               	goto	l2353
  3115     0121                     u2120:
  3116     0121                     l2351:
  3117                           
  3118                           ;microwave_oven.c: 180:             temp = 180;
  3119     0121  30B4               	movlw	180
  3120     0122  00B1               	movwf	set_temp@temp
  3121     0123  3000               	movlw	0
  3122     0124  00B2               	movwf	set_temp@temp+1
  3123     0125                     l2353:
  3124                           
  3125                           ;microwave_oven.c: 182:         clear_screen();
  3126     0125  120A  158A  25C6  120A  118A  	fcall	_clear_screen
  3127     012A                     l2355:
  3128                           
  3129                           ;microwave_oven.c: 183:         clcd_print("Pre-Heating ",(0x80 + 2));
  3130     012A  305E               	movlw	(low ((STR_19-__stringbase)| (0+32768)))& (0+255)
  3131     012B  00F6               	movwf	clcd_print@str
  3132     012C  3082               	movlw	130
  3133     012D  00F7               	movwf	clcd_print@addr
  3134     012E  120A  158A  261C  120A  118A  	fcall	_clcd_print
  3135     0133                     l2357:
  3136                           
  3137                           ;microwave_oven.c: 184:         clcd_print("Time Rem:",(0x90 + 0));
  3138     0133  309A               	movlw	(low ((STR_20-__stringbase)| (0+32768)))& (0+255)
  3139     0134  00F6               	movwf	clcd_print@str
  3140     0135  3090               	movlw	144
  3141     0136  00F7               	movwf	clcd_print@addr
  3142     0137  120A  158A  261C  120A  118A  	fcall	_clcd_print
  3143     013C                     l2359:
  3144                           
  3145                           ;microwave_oven.c: 185:         clcd_print("sec",(0x90 + 13));
  3146     013C  30E2               	movlw	(low ((STR_21-__stringbase)| (0+32768)))& (0+255)
  3147     013D  00F6               	movwf	clcd_print@str
  3148     013E  309D               	movlw	157
  3149     013F  00F7               	movwf	clcd_print@addr
  3150     0140  120A  158A  261C  120A  118A  	fcall	_clcd_print
  3151     0145                     l2361:
  3152                           
  3153                           ;microwave_oven.c: 186:         pre_heat_time=60;
  3154     0145  303C               	movlw	60
  3155     0146  1283               	bcf	3,5	;RP0=0, select bank0
  3156     0147  1303               	bcf	3,6	;RP1=0, select bank0
  3157     0148  00B3               	movwf	_pre_heat_time
  3158     0149  3000               	movlw	0
  3159     014A  00B4               	movwf	_pre_heat_time+1
  3160     014B                     l2363:
  3161                           
  3162                           ;microwave_oven.c: 188:         TMR2ON=1;
  3163     014B  1512               	bsf	18,2	;volatile
  3164                           
  3165                           ;microwave_oven.c: 190:         while(pre_heat_time != 0){
  3166     014C  29A6               	goto	l2367
  3167     014D                     l2365:
  3168                           
  3169                           ;microwave_oven.c: 193:             clcd_putch(((pre_heat_time/100)+ '0'),(0x90 + 10));
  3170     014D  309A               	movlw	154
  3171     014E  00A5               	movwf	clcd_putch@addr
  3172     014F  3064               	movlw	100
  3173     0150  00F2               	movwf	___lwdiv@divisor
  3174     0151  3000               	movlw	0
  3175     0152  00F3               	movwf	___lwdiv@divisor+1
  3176     0153  0834               	movf	_pre_heat_time+1,w
  3177     0154  00F5               	movwf	___lwdiv@dividend+1
  3178     0155  0833               	movf	_pre_heat_time,w
  3179     0156  00F4               	movwf	___lwdiv@dividend
  3180     0157  120A  158A  2718  120A  118A  	fcall	___lwdiv
  3181     015C  0872               	movf	?___lwdiv,w
  3182     015D  3E30               	addlw	48
  3183     015E  120A  158A  25B1  120A  118A  	fcall	_clcd_putch
  3184                           
  3185                           ;microwave_oven.c: 194:             clcd_putch(((pre_heat_time/10) % 10+ '0'),(0x90 + 11
      +                          ));
  3186     0163  309B               	movlw	155
  3187     0164  1283               	bcf	3,5	;RP0=0, select bank0
  3188     0165  1303               	bcf	3,6	;RP1=0, select bank0
  3189     0166  00A5               	movwf	clcd_putch@addr
  3190     0167  300A               	movlw	10
  3191     0168  00A0               	movwf	___lwmod@divisor
  3192     0169  3000               	movlw	0
  3193     016A  00A1               	movwf	___lwmod@divisor+1
  3194     016B  300A               	movlw	10
  3195     016C  00F2               	movwf	___lwdiv@divisor
  3196     016D  3000               	movlw	0
  3197     016E  00F3               	movwf	___lwdiv@divisor+1
  3198     016F  0834               	movf	_pre_heat_time+1,w
  3199     0170  00F5               	movwf	___lwdiv@dividend+1
  3200     0171  0833               	movf	_pre_heat_time,w
  3201     0172  00F4               	movwf	___lwdiv@dividend
  3202     0173  120A  158A  2718  120A  118A  	fcall	___lwdiv
  3203     0178  0873               	movf	?___lwdiv+1,w
  3204     0179  1283               	bcf	3,5	;RP0=0, select bank0
  3205     017A  1303               	bcf	3,6	;RP1=0, select bank0
  3206     017B  00A3               	movwf	___lwmod@dividend+1
  3207     017C  0872               	movf	?___lwdiv,w
  3208     017D  00A2               	movwf	___lwmod@dividend
  3209     017E  120A  158A  269C  120A  118A  	fcall	___lwmod
  3210     0183  1283               	bcf	3,5	;RP0=0, select bank0
  3211     0184  1303               	bcf	3,6	;RP1=0, select bank0
  3212     0185  0820               	movf	?___lwmod,w
  3213     0186  3E30               	addlw	48
  3214     0187  120A  158A  25B1  120A  118A  	fcall	_clcd_putch
  3215                           
  3216                           ;microwave_oven.c: 195:             clcd_putch((pre_heat_time % 10 + '0'),(0x90 + 12));
  3217     018C  309C               	movlw	156
  3218     018D  1283               	bcf	3,5	;RP0=0, select bank0
  3219     018E  1303               	bcf	3,6	;RP1=0, select bank0
  3220     018F  00A5               	movwf	clcd_putch@addr
  3221     0190  300A               	movlw	10
  3222     0191  00A0               	movwf	___lwmod@divisor
  3223     0192  3000               	movlw	0
  3224     0193  00A1               	movwf	___lwmod@divisor+1
  3225     0194  0834               	movf	_pre_heat_time+1,w
  3226     0195  00A3               	movwf	___lwmod@dividend+1
  3227     0196  0833               	movf	_pre_heat_time,w
  3228     0197  00A2               	movwf	___lwmod@dividend
  3229     0198  120A  158A  269C  120A  118A  	fcall	___lwmod
  3230     019D  1283               	bcf	3,5	;RP0=0, select bank0
  3231     019E  1303               	bcf	3,6	;RP1=0, select bank0
  3232     019F  0820               	movf	?___lwmod,w
  3233     01A0  3E30               	addlw	48
  3234     01A1  120A  158A  25B1  120A  118A  	fcall	_clcd_putch
  3235     01A6                     l2367:
  3236                           
  3237                           ;microwave_oven.c: 190:         while(pre_heat_time != 0){
  3238     01A6  1283               	bcf	3,5	;RP0=0, select bank0
  3239     01A7  1303               	bcf	3,6	;RP1=0, select bank0
  3240     01A8  0833               	movf	_pre_heat_time,w
  3241     01A9  0434               	iorwf	_pre_heat_time+1,w
  3242     01AA  1D03               	btfss	3,2
  3243     01AB  29AD               	goto	u2131
  3244     01AC  29AE               	goto	u2130
  3245     01AD                     u2131:
  3246     01AD  294D               	goto	l2365
  3247     01AE                     u2130:
  3248     01AE                     l85:
  3249                           
  3250                           ;microwave_oven.c: 199:         TMR2ON=0;
  3251     01AE  1112               	bcf	18,2	;volatile
  3252                           
  3253                           ;microwave_oven.c: 200:         operational_flag=0x11;
  3254     01AF  3011               	movlw	17
  3255     01B0  00BB               	movwf	_operational_flag
  3256     01B1                     l2369:
  3257                           
  3258                           ;microwave_oven.c: 204:     clcd_putch( ' ',(0xC0 + 8));
  3259     01B1  30C8               	movlw	200
  3260     01B2  00A5               	movwf	clcd_putch@addr
  3261     01B3  3020               	movlw	32
  3262     01B4  120A  158A  25B1  120A  118A  	fcall	_clcd_putch
  3263                           
  3264                           ;microwave_oven.c: 205:     clcd_putch( ' ',(0xC0 + 9));
  3265     01B9  30C9               	movlw	201
  3266     01BA  1283               	bcf	3,5	;RP0=0, select bank0
  3267     01BB  1303               	bcf	3,6	;RP1=0, select bank0
  3268     01BC  00A5               	movwf	clcd_putch@addr
  3269     01BD  3020               	movlw	32
  3270     01BE  120A  158A  25B1  120A  118A  	fcall	_clcd_putch
  3271                           
  3272                           ;microwave_oven.c: 206:     clcd_putch( ' ',(0xC0 + 10));
  3273     01C3  30CA               	movlw	202
  3274     01C4  1283               	bcf	3,5	;RP0=0, select bank0
  3275     01C5  1303               	bcf	3,6	;RP1=0, select bank0
  3276     01C6  00A5               	movwf	clcd_putch@addr
  3277     01C7  3020               	movlw	32
  3278     01C8  120A  158A  25B1  120A  118A  	fcall	_clcd_putch
  3279     01CD                     l2371:
  3280                           
  3281                           ;microwave_oven.c: 208:     for(unsigned char wait = 50; wait--; );
  3282     01CD  3032               	movlw	50
  3283     01CE  1283               	bcf	3,5	;RP0=0, select bank0
  3284     01CF  1303               	bcf	3,6	;RP1=0, select bank0
  3285     01D0  00A9               	movwf	set_temp@wait_94
  3286     01D1                     l2373:
  3287     01D1  3001               	movlw	1
  3288     01D2  02A9               	subwf	set_temp@wait_94,f
  3289     01D3  0A29               	incf	set_temp@wait_94,w
  3290     01D4  1D03               	btfss	3,2
  3291     01D5  29D7               	goto	u2141
  3292     01D6  29D8               	goto	u2140
  3293     01D7                     u2141:
  3294     01D7  29D1               	goto	l2373
  3295     01D8                     u2140:
  3296     01D8                     l2375:
  3297                           
  3298                           ;microwave_oven.c: 211:     clcd_putch((temp/100 + '0'),(0xC0 + 8));
  3299     01D8  30C8               	movlw	200
  3300     01D9  00A5               	movwf	clcd_putch@addr
  3301     01DA  3064               	movlw	100
  3302     01DB  00F2               	movwf	___lwdiv@divisor
  3303     01DC  3000               	movlw	0
  3304     01DD  00F3               	movwf	___lwdiv@divisor+1
  3305     01DE  0832               	movf	set_temp@temp+1,w
  3306     01DF  00F5               	movwf	___lwdiv@dividend+1
  3307     01E0  0831               	movf	set_temp@temp,w
  3308     01E1  00F4               	movwf	___lwdiv@dividend
  3309     01E2  120A  158A  2718  120A  118A  	fcall	___lwdiv
  3310     01E7  0872               	movf	?___lwdiv,w
  3311     01E8  3E30               	addlw	48
  3312     01E9  120A  158A  25B1  120A  118A  	fcall	_clcd_putch
  3313                           
  3314                           ;microwave_oven.c: 212:     clcd_putch( ((temp/10) % 10+ '0'),(0xC0 + 9));
  3315     01EE  30C9               	movlw	201
  3316     01EF  1283               	bcf	3,5	;RP0=0, select bank0
  3317     01F0  1303               	bcf	3,6	;RP1=0, select bank0
  3318     01F1  00A5               	movwf	clcd_putch@addr
  3319     01F2  300A               	movlw	10
  3320     01F3  00A0               	movwf	___lwmod@divisor
  3321     01F4  3000               	movlw	0
  3322     01F5  00A1               	movwf	___lwmod@divisor+1
  3323     01F6  300A               	movlw	10
  3324     01F7  00F2               	movwf	___lwdiv@divisor
  3325     01F8  3000               	movlw	0
  3326     01F9  00F3               	movwf	___lwdiv@divisor+1
  3327     01FA  0832               	movf	set_temp@temp+1,w
  3328     01FB  00F5               	movwf	___lwdiv@dividend+1
  3329     01FC  0831               	movf	set_temp@temp,w
  3330     01FD  00F4               	movwf	___lwdiv@dividend
  3331     01FE  120A  158A  2718  120A  118A  	fcall	___lwdiv
  3332     0203  0873               	movf	?___lwdiv+1,w
  3333     0204  1283               	bcf	3,5	;RP0=0, select bank0
  3334     0205  1303               	bcf	3,6	;RP1=0, select bank0
  3335     0206  00A3               	movwf	___lwmod@dividend+1
  3336     0207  0872               	movf	?___lwdiv,w
  3337     0208  00A2               	movwf	___lwmod@dividend
  3338     0209  120A  158A  269C  120A  118A  	fcall	___lwmod
  3339     020E  1283               	bcf	3,5	;RP0=0, select bank0
  3340     020F  1303               	bcf	3,6	;RP1=0, select bank0
  3341     0210  0820               	movf	?___lwmod,w
  3342     0211  3E30               	addlw	48
  3343     0212  120A  158A  25B1  120A  118A  	fcall	_clcd_putch
  3344                           
  3345                           ;microwave_oven.c: 213:     clcd_putch( (temp/10 + '0'),(0xC0 + 10));
  3346     0217  30CA               	movlw	202
  3347     0218  1283               	bcf	3,5	;RP0=0, select bank0
  3348     0219  1303               	bcf	3,6	;RP1=0, select bank0
  3349     021A  00A5               	movwf	clcd_putch@addr
  3350     021B  300A               	movlw	10
  3351     021C  00F2               	movwf	___lwdiv@divisor
  3352     021D  3000               	movlw	0
  3353     021E  00F3               	movwf	___lwdiv@divisor+1
  3354     021F  0832               	movf	set_temp@temp+1,w
  3355     0220  00F5               	movwf	___lwdiv@dividend+1
  3356     0221  0831               	movf	set_temp@temp,w
  3357     0222  00F4               	movwf	___lwdiv@dividend
  3358     0223  120A  158A  2718  120A  118A  	fcall	___lwdiv
  3359     0228  0872               	movf	?___lwdiv,w
  3360     0229  3E30               	addlw	48
  3361     022A  120A  158A  25B1  120A  118A  	fcall	_clcd_putch
  3362     022F                     l89:
  3363     022F  0008               	return
  3364     0230                     __end_of_set_temp:
  3365                           
  3366                           	psect	text7
  3367     0DC6                     __ptext7:	
  3368 ;; *************** function _clear_screen *****************
  3369 ;; Defined at:
  3370 ;;		line 21 in file "microwave_oven.c"
  3371 ;; Parameters:    Size  Location     Type
  3372 ;;		None
  3373 ;; Auto vars:     Size  Location     Type
  3374 ;;		None
  3375 ;; Return value:  Size  Location     Type
  3376 ;;                  1    wreg      void 
  3377 ;; Registers used:
  3378 ;;		wreg, status,2, status,0, pclath, cstack
  3379 ;; Tracked objects:
  3380 ;;		On entry : 0/0
  3381 ;;		On exit  : 0/0
  3382 ;;		Unchanged: 0/0
  3383 ;; Data sizes:     COMMON   BANK0   BANK1   BANK3   BANK2
  3384 ;;      Params:         0       0       0       0       0
  3385 ;;      Locals:         0       0       0       0       0
  3386 ;;      Temps:          3       0       0       0       0
  3387 ;;      Totals:         3       0       0       0       0
  3388 ;;Total ram usage:        3 bytes
  3389 ;; Hardware stack levels used: 1
  3390 ;; Hardware stack levels required when called: 2
  3391 ;; This function calls:
  3392 ;;		_clcd_write
  3393 ;; This function is called by:
  3394 ;;		_set_time
  3395 ;;		_time_display
  3396 ;;		_set_temp
  3397 ;;		_main
  3398 ;; This function uses a non-reentrant model
  3399 ;;
  3400                           
  3401     0DC6                     _clear_screen:	
  3402                           ;psect for function _clear_screen
  3403                           
  3404     0DC6                     l1523:	
  3405                           ;incstack = 0
  3406                           ; Regs used in _clear_screen: [wreg+status,2+status,0+pclath+cstack]
  3407                           
  3408                           
  3409                           ;microwave_oven.c: 22:     clcd_write(0x01,0);
  3410     0DC6  01F2               	clrf	clcd_write@mode
  3411     0DC7  3001               	movlw	1
  3412     0DC8  120A  158A  2666  120A  158A  	fcall	_clcd_write
  3413     0DCD                     l1525:
  3414                           
  3415                           ;microwave_oven.c: 23:     _delay((unsigned long)((500)*(20000000/4000.0)));
  3416     0DCD  300D               	movlw	13
  3417     0DCE  00F8               	movwf	??_clear_screen+2
  3418     0DCF  30AF               	movlw	175
  3419     0DD0  00F7               	movwf	??_clear_screen+1
  3420     0DD1  30B6               	movlw	182
  3421     0DD2  00F6               	movwf	??_clear_screen
  3422     0DD3                     u2667:
  3423     0DD3  0BF6               	decfsz	??_clear_screen,f
  3424     0DD4  2DD3               	goto	u2667
  3425     0DD5  0BF7               	decfsz	??_clear_screen+1,f
  3426     0DD6  2DD3               	goto	u2667
  3427     0DD7  0BF8               	decfsz	??_clear_screen+2,f
  3428     0DD8  2DD3               	goto	u2667
  3429     0DD9  0000               	nop
  3430     0DDA                     l32:
  3431     0DDA  0008               	return
  3432     0DDB                     __end_of_clear_screen:
  3433                           
  3434                           	psect	text8
  3435     07D5                     __ptext8:	
  3436 ;; *************** function ___wmul *****************
  3437 ;; Defined at:
  3438 ;;		line 15 in file "C:\Program Files\Microchip\xc8\v3.00\pic\sources\c99\common\Umul16.c"
  3439 ;; Parameters:    Size  Location     Type
  3440 ;;  multiplier      2    2[COMMON] unsigned int 
  3441 ;;  multiplicand    2    4[COMMON] unsigned int 
  3442 ;; Auto vars:     Size  Location     Type
  3443 ;;  product         2    6[COMMON] unsigned int 
  3444 ;; Return value:  Size  Location     Type
  3445 ;;                  2    2[COMMON] unsigned int 
  3446 ;; Registers used:
  3447 ;;		wreg, status,2, status,0
  3448 ;; Tracked objects:
  3449 ;;		On entry : 0/0
  3450 ;;		On exit  : 0/0
  3451 ;;		Unchanged: 0/0
  3452 ;; Data sizes:     COMMON   BANK0   BANK1   BANK3   BANK2
  3453 ;;      Params:         4       0       0       0       0
  3454 ;;      Locals:         2       0       0       0       0
  3455 ;;      Temps:          0       0       0       0       0
  3456 ;;      Totals:         6       0       0       0       0
  3457 ;;Total ram usage:        6 bytes
  3458 ;; Hardware stack levels used: 1
  3459 ;; Hardware stack levels required when called: 1
  3460 ;; This function calls:
  3461 ;;		Nothing
  3462 ;; This function is called by:
  3463 ;;		_set_temp
  3464 ;; This function uses a non-reentrant model
  3465 ;;
  3466                           
  3467     07D5                     ___wmul:	
  3468                           ;psect for function ___wmul
  3469                           
  3470     07D5                     l1635:	
  3471                           ;incstack = 0
  3472                           ; Regs used in ___wmul: [wreg+status,2+status,0]
  3473                           
  3474     07D5  01F6               	clrf	___wmul@product
  3475     07D6  01F7               	clrf	___wmul@product+1
  3476     07D7                     l1637:
  3477     07D7  1C72               	btfss	___wmul@multiplier,0
  3478     07D8  2FDA               	goto	u981
  3479     07D9  2FDB               	goto	u980
  3480     07DA                     u981:
  3481     07DA  2FE1               	goto	l413
  3482     07DB                     u980:
  3483     07DB                     l1639:
  3484     07DB  0874               	movf	___wmul@multiplicand,w
  3485     07DC  07F6               	addwf	___wmul@product,f
  3486     07DD  1803               	skipnc
  3487     07DE  0AF7               	incf	___wmul@product+1,f
  3488     07DF  0875               	movf	___wmul@multiplicand+1,w
  3489     07E0  07F7               	addwf	___wmul@product+1,f
  3490     07E1                     l413:
  3491     07E1  3001               	movlw	1
  3492     07E2                     u995:
  3493     07E2  1003               	clrc
  3494     07E3  0DF4               	rlf	___wmul@multiplicand,f
  3495     07E4  0DF5               	rlf	___wmul@multiplicand+1,f
  3496     07E5  3EFF               	addlw	-1
  3497     07E6  1D03               	skipz
  3498     07E7  2FE2               	goto	u995
  3499     07E8                     l1641:
  3500     07E8  3001               	movlw	1
  3501     07E9                     u1005:
  3502     07E9  1003               	clrc
  3503     07EA  0CF3               	rrf	___wmul@multiplier+1,f
  3504     07EB  0CF2               	rrf	___wmul@multiplier,f
  3505     07EC  3EFF               	addlw	-1
  3506     07ED  1D03               	skipz
  3507     07EE  2FE9               	goto	u1005
  3508     07EF                     l1643:
  3509     07EF  0872               	movf	___wmul@multiplier,w
  3510     07F0  0473               	iorwf	___wmul@multiplier+1,w
  3511     07F1  1D03               	btfss	3,2
  3512     07F2  2FF4               	goto	u1011
  3513     07F3  2FF5               	goto	u1010
  3514     07F4                     u1011:
  3515     07F4  2FD7               	goto	l1637
  3516     07F5                     u1010:
  3517     07F5                     l1645:
  3518     07F5  0877               	movf	___wmul@product+1,w
  3519     07F6  00F3               	movwf	?___wmul+1
  3520     07F7  0876               	movf	___wmul@product,w
  3521     07F8  00F2               	movwf	?___wmul
  3522     07F9                     l415:
  3523     07F9  0008               	return
  3524     07FA                     __end_of___wmul:
  3525                           
  3526                           	psect	text9
  3527     0E9C                     __ptext9:	
  3528 ;; *************** function ___lwmod *****************
  3529 ;; Defined at:
  3530 ;;		line 5 in file "C:\Program Files\Microchip\xc8\v3.00\pic\sources\c99\common\lwmod.c"
  3531 ;; Parameters:    Size  Location     Type
  3532 ;;  divisor         2    0[BANK0 ] unsigned int 
  3533 ;;  dividend        2    2[BANK0 ] unsigned int 
  3534 ;; Auto vars:     Size  Location     Type
  3535 ;;  counter         1    4[BANK0 ] unsigned char 
  3536 ;; Return value:  Size  Location     Type
  3537 ;;                  2    0[BANK0 ] unsigned int 
  3538 ;; Registers used:
  3539 ;;		wreg, status,2, status,0
  3540 ;; Tracked objects:
  3541 ;;		On entry : 0/0
  3542 ;;		On exit  : 0/0
  3543 ;;		Unchanged: 0/0
  3544 ;; Data sizes:     COMMON   BANK0   BANK1   BANK3   BANK2
  3545 ;;      Params:         0       4       0       0       0
  3546 ;;      Locals:         0       1       0       0       0
  3547 ;;      Temps:          0       0       0       0       0
  3548 ;;      Totals:         0       5       0       0       0
  3549 ;;Total ram usage:        5 bytes
  3550 ;; Hardware stack levels used: 1
  3551 ;; Hardware stack levels required when called: 1
  3552 ;; This function calls:
  3553 ;;		Nothing
  3554 ;; This function is called by:
  3555 ;;		_set_temp
  3556 ;; This function uses a non-reentrant model
  3557 ;;
  3558                           
  3559     0E9C                     ___lwmod:	
  3560                           ;psect for function ___lwmod
  3561                           
  3562     0E9C                     l2185:	
  3563                           ;incstack = 0
  3564                           ; Regs used in ___lwmod: [wreg+status,2+status,0]
  3565                           
  3566     0E9C  1283               	bcf	3,5	;RP0=0, select bank0
  3567     0E9D  1303               	bcf	3,6	;RP1=0, select bank0
  3568     0E9E  0820               	movf	___lwmod@divisor,w
  3569     0E9F  0421               	iorwf	___lwmod@divisor+1,w
  3570     0EA0  1903               	btfsc	3,2
  3571     0EA1  2EA3               	goto	u1851
  3572     0EA2  2EA4               	goto	u1850
  3573     0EA3                     u1851:
  3574     0EA3  2ED1               	goto	l2203
  3575     0EA4                     u1850:
  3576     0EA4                     l2187:
  3577     0EA4  3001               	movlw	1
  3578     0EA5  00A4               	movwf	___lwmod@counter
  3579     0EA6  2EB0               	goto	l2193
  3580     0EA7                     l2189:
  3581     0EA7  3001               	movlw	1
  3582     0EA8                     u1865:
  3583     0EA8  1003               	clrc
  3584     0EA9  0DA0               	rlf	___lwmod@divisor,f
  3585     0EAA  0DA1               	rlf	___lwmod@divisor+1,f
  3586     0EAB  3EFF               	addlw	-1
  3587     0EAC  1D03               	skipz
  3588     0EAD  2EA8               	goto	u1865
  3589     0EAE                     l2191:
  3590     0EAE  3001               	movlw	1
  3591     0EAF  07A4               	addwf	___lwmod@counter,f
  3592     0EB0                     l2193:
  3593     0EB0  1FA1               	btfss	___lwmod@divisor+1,7
  3594     0EB1  2EB3               	goto	u1871
  3595     0EB2  2EB4               	goto	u1870
  3596     0EB3                     u1871:
  3597     0EB3  2EA7               	goto	l2189
  3598     0EB4                     u1870:
  3599     0EB4                     l2195:
  3600     0EB4  0821               	movf	___lwmod@divisor+1,w
  3601     0EB5  0223               	subwf	___lwmod@dividend+1,w
  3602     0EB6  1D03               	skipz
  3603     0EB7  2EBA               	goto	u1885
  3604     0EB8  0820               	movf	___lwmod@divisor,w
  3605     0EB9  0222               	subwf	___lwmod@dividend,w
  3606     0EBA                     u1885:
  3607     0EBA  1C03               	skipc
  3608     0EBB  2EBD               	goto	u1881
  3609     0EBC  2EBE               	goto	u1880
  3610     0EBD                     u1881:
  3611     0EBD  2EC4               	goto	l2199
  3612     0EBE                     u1880:
  3613     0EBE                     l2197:
  3614     0EBE  0820               	movf	___lwmod@divisor,w
  3615     0EBF  02A2               	subwf	___lwmod@dividend,f
  3616     0EC0  0821               	movf	___lwmod@divisor+1,w
  3617     0EC1  1C03               	skipc
  3618     0EC2  03A3               	decf	___lwmod@dividend+1,f
  3619     0EC3  02A3               	subwf	___lwmod@dividend+1,f
  3620     0EC4                     l2199:
  3621     0EC4  3001               	movlw	1
  3622     0EC5                     u1895:
  3623     0EC5  1003               	clrc
  3624     0EC6  0CA1               	rrf	___lwmod@divisor+1,f
  3625     0EC7  0CA0               	rrf	___lwmod@divisor,f
  3626     0EC8  3EFF               	addlw	-1
  3627     0EC9  1D03               	skipz
  3628     0ECA  2EC5               	goto	u1895
  3629     0ECB                     l2201:
  3630     0ECB  3001               	movlw	1
  3631     0ECC  02A4               	subwf	___lwmod@counter,f
  3632     0ECD  1D03               	btfss	3,2
  3633     0ECE  2ED0               	goto	u1901
  3634     0ECF  2ED1               	goto	u1900
  3635     0ED0                     u1901:
  3636     0ED0  2EB4               	goto	l2195
  3637     0ED1                     u1900:
  3638     0ED1                     l2203:
  3639     0ED1  0823               	movf	___lwmod@dividend+1,w
  3640     0ED2  00A1               	movwf	?___lwmod+1
  3641     0ED3  0822               	movf	___lwmod@dividend,w
  3642     0ED4  00A0               	movwf	?___lwmod
  3643     0ED5                     l703:
  3644     0ED5  0008               	return
  3645     0ED6                     __end_of___lwmod:
  3646                           
  3647                           	psect	text10
  3648     0F18                     __ptext10:	
  3649 ;; *************** function ___lwdiv *****************
  3650 ;; Defined at:
  3651 ;;		line 5 in file "C:\Program Files\Microchip\xc8\v3.00\pic\sources\c99\common\lwdiv.c"
  3652 ;; Parameters:    Size  Location     Type
  3653 ;;  divisor         2    2[COMMON] unsigned int 
  3654 ;;  dividend        2    4[COMMON] unsigned int 
  3655 ;; Auto vars:     Size  Location     Type
  3656 ;;  quotient        2    6[COMMON] unsigned int 
  3657 ;;  counter         1    8[COMMON] unsigned char 
  3658 ;; Return value:  Size  Location     Type
  3659 ;;                  2    2[COMMON] unsigned int 
  3660 ;; Registers used:
  3661 ;;		wreg, status,2, status,0
  3662 ;; Tracked objects:
  3663 ;;		On entry : 0/0
  3664 ;;		On exit  : 0/0
  3665 ;;		Unchanged: 0/0
  3666 ;; Data sizes:     COMMON   BANK0   BANK1   BANK3   BANK2
  3667 ;;      Params:         4       0       0       0       0
  3668 ;;      Locals:         3       0       0       0       0
  3669 ;;      Temps:          0       0       0       0       0
  3670 ;;      Totals:         7       0       0       0       0
  3671 ;;Total ram usage:        7 bytes
  3672 ;; Hardware stack levels used: 1
  3673 ;; Hardware stack levels required when called: 1
  3674 ;; This function calls:
  3675 ;;		Nothing
  3676 ;; This function is called by:
  3677 ;;		_set_temp
  3678 ;; This function uses a non-reentrant model
  3679 ;;
  3680                           
  3681     0F18                     ___lwdiv:	
  3682                           ;psect for function ___lwdiv
  3683                           
  3684     0F18                     l1649:	
  3685                           ;incstack = 0
  3686                           ; Regs used in ___lwdiv: [wreg+status,2+status,0]
  3687                           
  3688     0F18  01F6               	clrf	___lwdiv@quotient
  3689     0F19  01F7               	clrf	___lwdiv@quotient+1
  3690     0F1A                     l1651:
  3691     0F1A  0872               	movf	___lwdiv@divisor,w
  3692     0F1B  0473               	iorwf	___lwdiv@divisor+1,w
  3693     0F1C  1903               	btfsc	3,2
  3694     0F1D  2F1F               	goto	u1021
  3695     0F1E  2F20               	goto	u1020
  3696     0F1F                     u1021:
  3697     0F1F  2F55               	goto	l1671
  3698     0F20                     u1020:
  3699     0F20                     l1653:
  3700     0F20  3001               	movlw	1
  3701     0F21  00F8               	movwf	___lwdiv@counter
  3702     0F22  2F2C               	goto	l1659
  3703     0F23                     l1655:
  3704     0F23  3001               	movlw	1
  3705     0F24                     u1035:
  3706     0F24  1003               	clrc
  3707     0F25  0DF2               	rlf	___lwdiv@divisor,f
  3708     0F26  0DF3               	rlf	___lwdiv@divisor+1,f
  3709     0F27  3EFF               	addlw	-1
  3710     0F28  1D03               	skipz
  3711     0F29  2F24               	goto	u1035
  3712     0F2A                     l1657:
  3713     0F2A  3001               	movlw	1
  3714     0F2B  07F8               	addwf	___lwdiv@counter,f
  3715     0F2C                     l1659:
  3716     0F2C  1FF3               	btfss	___lwdiv@divisor+1,7
  3717     0F2D  2F2F               	goto	u1041
  3718     0F2E  2F30               	goto	u1040
  3719     0F2F                     u1041:
  3720     0F2F  2F23               	goto	l1655
  3721     0F30                     u1040:
  3722     0F30                     l1661:
  3723     0F30  3001               	movlw	1
  3724     0F31                     u1055:
  3725     0F31  1003               	clrc
  3726     0F32  0DF6               	rlf	___lwdiv@quotient,f
  3727     0F33  0DF7               	rlf	___lwdiv@quotient+1,f
  3728     0F34  3EFF               	addlw	-1
  3729     0F35  1D03               	skipz
  3730     0F36  2F31               	goto	u1055
  3731     0F37  0873               	movf	___lwdiv@divisor+1,w
  3732     0F38  0275               	subwf	___lwdiv@dividend+1,w
  3733     0F39  1D03               	skipz
  3734     0F3A  2F3D               	goto	u1065
  3735     0F3B  0872               	movf	___lwdiv@divisor,w
  3736     0F3C  0274               	subwf	___lwdiv@dividend,w
  3737     0F3D                     u1065:
  3738     0F3D  1C03               	skipc
  3739     0F3E  2F40               	goto	u1061
  3740     0F3F  2F41               	goto	u1060
  3741     0F40                     u1061:
  3742     0F40  2F48               	goto	l1667
  3743     0F41                     u1060:
  3744     0F41                     l1663:
  3745     0F41  0872               	movf	___lwdiv@divisor,w
  3746     0F42  02F4               	subwf	___lwdiv@dividend,f
  3747     0F43  0873               	movf	___lwdiv@divisor+1,w
  3748     0F44  1C03               	skipc
  3749     0F45  03F5               	decf	___lwdiv@dividend+1,f
  3750     0F46  02F5               	subwf	___lwdiv@dividend+1,f
  3751     0F47                     l1665:
  3752     0F47  1476               	bsf	___lwdiv@quotient,0
  3753     0F48                     l1667:
  3754     0F48  3001               	movlw	1
  3755     0F49                     u1075:
  3756     0F49  1003               	clrc
  3757     0F4A  0CF3               	rrf	___lwdiv@divisor+1,f
  3758     0F4B  0CF2               	rrf	___lwdiv@divisor,f
  3759     0F4C  3EFF               	addlw	-1
  3760     0F4D  1D03               	skipz
  3761     0F4E  2F49               	goto	u1075
  3762     0F4F                     l1669:
  3763     0F4F  3001               	movlw	1
  3764     0F50  02F8               	subwf	___lwdiv@counter,f
  3765     0F51  1D03               	btfss	3,2
  3766     0F52  2F54               	goto	u1081
  3767     0F53  2F55               	goto	u1080
  3768     0F54                     u1081:
  3769     0F54  2F30               	goto	l1661
  3770     0F55                     u1080:
  3771     0F55                     l1671:
  3772     0F55  0877               	movf	___lwdiv@quotient+1,w
  3773     0F56  00F3               	movwf	?___lwdiv+1
  3774     0F57  0876               	movf	___lwdiv@quotient,w
  3775     0F58  00F2               	movwf	?___lwdiv
  3776     0F59                     l693:
  3777     0F59  0008               	return
  3778     0F5A                     __end_of___lwdiv:
  3779                           
  3780                           	psect	text11
  3781     0DF9                     __ptext11:	
  3782 ;; *************** function _read_matrix_keypad *****************
  3783 ;; Defined at:
  3784 ;;		line 111 in file "matrix_keypad.c"
  3785 ;; Parameters:    Size  Location     Type
  3786 ;;  mode            1    wreg     unsigned char 
  3787 ;; Auto vars:     Size  Location     Type
  3788 ;;  mode            1    4[COMMON] unsigned char 
  3789 ;;  key             1    5[COMMON] unsigned char 
  3790 ;; Return value:  Size  Location     Type
  3791 ;;                  1    wreg      unsigned char 
  3792 ;; Registers used:
  3793 ;;		wreg, status,2, status,0, pclath, cstack
  3794 ;; Tracked objects:
  3795 ;;		On entry : 0/0
  3796 ;;		On exit  : 0/0
  3797 ;;		Unchanged: 0/0
  3798 ;; Data sizes:     COMMON   BANK0   BANK1   BANK3   BANK2
  3799 ;;      Params:         0       0       0       0       0
  3800 ;;      Locals:         2       0       0       0       0
  3801 ;;      Temps:          0       0       0       0       0
  3802 ;;      Totals:         2       0       0       0       0
  3803 ;;Total ram usage:        2 bytes
  3804 ;; Hardware stack levels used: 1
  3805 ;; Hardware stack levels required when called: 2
  3806 ;; This function calls:
  3807 ;;		_scan_keypad
  3808 ;; This function is called by:
  3809 ;;		_main
  3810 ;; This function uses a non-reentrant model
  3811 ;;
  3812                           
  3813     0DF9                     _read_matrix_keypad:	
  3814                           ;psect for function _read_matrix_keypad
  3815                           
  3816                           
  3817                           ;incstack = 0
  3818                           ; Regs used in _read_matrix_keypad: [wreg+status,2+status,0+pclath+cstack]
  3819                           ;read_matrix_keypad@mode stored from wreg
  3820     0DF9  00F4               	movwf	read_matrix_keypad@mode
  3821     0DFA                     l1911:
  3822                           
  3823                           ;matrix_keypad.c: 111: unsigned char read_matrix_keypad(unsigned char mode);matrix_keypa
      +                          d.c: 112: {;matrix_keypad.c: 113:     static unsigned char once = 1;;matrix_keypad.c: 11
      +                          4:     unsigned char key;;matrix_keypad.c: 116:     key = scan_keypad();
  3824     0DFA  120A  118A  26C4  120A  158A  	fcall	_scan_keypad
  3825     0DFF  00F5               	movwf	read_matrix_keypad@key
  3826     0E00                     l1913:
  3827                           
  3828                           ;matrix_keypad.c: 118:     if (mode == 0)
  3829     0E00  0874               	movf	read_matrix_keypad@mode,w
  3830     0E01  1D03               	btfss	3,2
  3831     0E02  2E04               	goto	u1411
  3832     0E03  2E05               	goto	u1410
  3833     0E04                     u1411:
  3834     0E04  2E07               	goto	l1921
  3835     0E05                     u1410:
  3836     0E05                     l1915:
  3837                           
  3838                           ;matrix_keypad.c: 119:     {;matrix_keypad.c: 120:         return key;
  3839     0E05  0875               	movf	read_matrix_keypad@key,w
  3840     0E06  2E1B               	goto	l153
  3841     0E07                     l1921:
  3842                           
  3843                           ;matrix_keypad.c: 123:     {;matrix_keypad.c: 124:         if ((key != 0xFF) && once)
  3844     0E07  0A75               	incf	read_matrix_keypad@key,w
  3845     0E08  1903               	btfsc	3,2
  3846     0E09  2E0B               	goto	u1421
  3847     0E0A  2E0C               	goto	u1420
  3848     0E0B                     u1421:
  3849     0E0B  2E13               	goto	l1933
  3850     0E0C                     u1420:
  3851     0E0C                     l1923:
  3852     0E0C  087B               	movf	read_matrix_keypad@once,w
  3853     0E0D  1903               	btfsc	3,2
  3854     0E0E  2E10               	goto	u1431
  3855     0E0F  2E11               	goto	u1430
  3856     0E10                     u1431:
  3857     0E10  2E13               	goto	l1933
  3858     0E11                     u1430:
  3859     0E11                     l1925:
  3860                           
  3861                           ;matrix_keypad.c: 125:         {;matrix_keypad.c: 126:             once = 0;
  3862     0E11  01FB               	clrf	read_matrix_keypad@once
  3863     0E12  2E05               	goto	l1915
  3864     0E13                     l1933:
  3865     0E13  0A75               	incf	read_matrix_keypad@key,w
  3866     0E14  1D03               	btfss	3,2
  3867     0E15  2E17               	goto	u1441
  3868     0E16  2E18               	goto	u1440
  3869     0E17                     u1441:
  3870     0E17  2E1A               	goto	l1937
  3871     0E18                     u1440:
  3872     0E18                     l1935:
  3873                           
  3874                           ;matrix_keypad.c: 131:         {;matrix_keypad.c: 132:             once = 1;
  3875     0E18  3001               	movlw	1
  3876     0E19  00FB               	movwf	read_matrix_keypad@once
  3877     0E1A                     l1937:
  3878                           
  3879                           ;matrix_keypad.c: 136:     return 0xFF;
  3880     0E1A  30FF               	movlw	255
  3881     0E1B                     l153:
  3882     0E1B  0008               	return
  3883     0E1C                     __end_of_read_matrix_keypad:
  3884                           
  3885                           	psect	text12
  3886     06C4                     __ptext12:	
  3887 ;; *************** function _scan_keypad *****************
  3888 ;; Defined at:
  3889 ;;		line 24 in file "matrix_keypad.c"
  3890 ;; Parameters:    Size  Location     Type
  3891 ;;		None
  3892 ;; Auto vars:     Size  Location     Type
  3893 ;;  i               2    2[COMMON] int 
  3894 ;; Return value:  Size  Location     Type
  3895 ;;                  1    wreg      unsigned char 
  3896 ;; Registers used:
  3897 ;;		wreg, status,2, status,0
  3898 ;; Tracked objects:
  3899 ;;		On entry : 0/0
  3900 ;;		On exit  : 0/0
  3901 ;;		Unchanged: 0/0
  3902 ;; Data sizes:     COMMON   BANK0   BANK1   BANK3   BANK2
  3903 ;;      Params:         0       0       0       0       0
  3904 ;;      Locals:         2       0       0       0       0
  3905 ;;      Temps:          0       0       0       0       0
  3906 ;;      Totals:         2       0       0       0       0
  3907 ;;Total ram usage:        2 bytes
  3908 ;; Hardware stack levels used: 1
  3909 ;; Hardware stack levels required when called: 1
  3910 ;; This function calls:
  3911 ;;		Nothing
  3912 ;; This function is called by:
  3913 ;;		_read_matrix_keypad
  3914 ;; This function uses a non-reentrant model
  3915 ;;
  3916                           
  3917     06C4                     _scan_keypad:	
  3918                           ;psect for function _scan_keypad
  3919                           
  3920     06C4                     l1539:	
  3921                           ;incstack = 0
  3922                           ; Regs used in _scan_keypad: [wreg+status,2+status,0]
  3923                           
  3924                           
  3925                           ;matrix_keypad.c: 26:     int i;;matrix_keypad.c: 28:     RD3 = 0;
  3926     06C4  1283               	bcf	3,5	;RP0=0, select bank0
  3927     06C5  1303               	bcf	3,6	;RP1=0, select bank0
  3928     06C6  1188               	bcf	8,3	;volatile
  3929                           
  3930                           ;matrix_keypad.c: 29:     RD2 = 1;
  3931     06C7  1508               	bsf	8,2	;volatile
  3932                           
  3933                           ;matrix_keypad.c: 30:     RD1 = 1;
  3934     06C8  1488               	bsf	8,1	;volatile
  3935                           
  3936                           ;matrix_keypad.c: 31:     RD0 = 1;
  3937     06C9  1408               	bsf	8,0	;volatile
  3938     06CA                     l1541:
  3939                           
  3940                           ;matrix_keypad.c: 33:     for (i = 100; i--; );
  3941     06CA  3064               	movlw	100
  3942     06CB  00F2               	movwf	scan_keypad@i
  3943     06CC  3000               	movlw	0
  3944     06CD  00F3               	movwf	scan_keypad@i+1
  3945     06CE                     l1543:
  3946     06CE  30FF               	movlw	255
  3947     06CF  07F2               	addwf	scan_keypad@i,f
  3948     06D0  1803               	skipnc
  3949     06D1  0AF3               	incf	scan_keypad@i+1,f
  3950     06D2  30FF               	movlw	255
  3951     06D3  07F3               	addwf	scan_keypad@i+1,f
  3952     06D4  0A72               	incf	scan_keypad@i,w
  3953     06D5  1D03               	skipz
  3954     06D6  2EDB               	goto	u821
  3955     06D7  0A73               	incf	scan_keypad@i+1,w
  3956     06D8  1D03               	btfss	3,2
  3957     06D9  2EDB               	goto	u821
  3958     06DA  2EDC               	goto	u820
  3959     06DB                     u821:
  3960     06DB  2ECE               	goto	l1543
  3961     06DC                     u820:
  3962     06DC                     l117:
  3963                           
  3964                           ;matrix_keypad.c: 35:     if (RB0 == 0)
  3965     06DC  1283               	bcf	3,5	;RP0=0, select bank0
  3966     06DD  1303               	bcf	3,6	;RP1=0, select bank0
  3967     06DE  1806               	btfsc	6,0	;volatile
  3968     06DF  2EE1               	goto	u831
  3969     06E0  2EE2               	goto	u830
  3970     06E1                     u831:
  3971     06E1  2EE4               	goto	l118
  3972     06E2                     u830:
  3973     06E2                     l1545:
  3974                           
  3975                           ;matrix_keypad.c: 36:     {;matrix_keypad.c: 37:         return 1;
  3976     06E2  3001               	movlw	1
  3977     06E3  2F6F               	goto	l119
  3978     06E4                     l118:	
  3979                           ;matrix_keypad.c: 39:     else if (RB1 == 0)
  3980                           
  3981     06E4  1886               	btfsc	6,1	;volatile
  3982     06E5  2EE7               	goto	u841
  3983     06E6  2EE8               	goto	u840
  3984     06E7                     u841:
  3985     06E7  2EEA               	goto	l121
  3986     06E8                     u840:
  3987     06E8                     l1551:
  3988                           
  3989                           ;matrix_keypad.c: 40:     {;matrix_keypad.c: 41:         return 2;
  3990     06E8  3002               	movlw	2
  3991     06E9  2F6F               	goto	l119
  3992     06EA                     l121:	
  3993                           ;matrix_keypad.c: 43:     else if (RB2 == 0)
  3994                           
  3995     06EA  1906               	btfsc	6,2	;volatile
  3996     06EB  2EED               	goto	u851
  3997     06EC  2EEE               	goto	u850
  3998     06ED                     u851:
  3999     06ED  2EF0               	goto	l120
  4000     06EE                     u850:
  4001     06EE                     l1557:
  4002                           
  4003                           ;matrix_keypad.c: 44:     {;matrix_keypad.c: 45:         return 3;
  4004     06EE  3003               	movlw	3
  4005     06EF  2F6F               	goto	l119
  4006     06F0                     l120:
  4007                           
  4008                           ;matrix_keypad.c: 48:     RD3 = 1;
  4009     06F0  1588               	bsf	8,3	;volatile
  4010                           
  4011                           ;matrix_keypad.c: 49:     RD2 = 0;
  4012     06F1  1108               	bcf	8,2	;volatile
  4013                           
  4014                           ;matrix_keypad.c: 50:     RD1 = 1;
  4015     06F2  1488               	bsf	8,1	;volatile
  4016                           
  4017                           ;matrix_keypad.c: 51:     RD0 = 1;
  4018     06F3  1408               	bsf	8,0	;volatile
  4019     06F4                     l1561:
  4020                           
  4021                           ;matrix_keypad.c: 53:     for (i = 100; i--; );
  4022     06F4  3064               	movlw	100
  4023     06F5  00F2               	movwf	scan_keypad@i
  4024     06F6  3000               	movlw	0
  4025     06F7  00F3               	movwf	scan_keypad@i+1
  4026     06F8                     l1563:
  4027     06F8  30FF               	movlw	255
  4028     06F9  07F2               	addwf	scan_keypad@i,f
  4029     06FA  1803               	skipnc
  4030     06FB  0AF3               	incf	scan_keypad@i+1,f
  4031     06FC  30FF               	movlw	255
  4032     06FD  07F3               	addwf	scan_keypad@i+1,f
  4033     06FE  0A72               	incf	scan_keypad@i,w
  4034     06FF  1D03               	skipz
  4035     0700  2F05               	goto	u861
  4036     0701  0A73               	incf	scan_keypad@i+1,w
  4037     0702  1D03               	btfss	3,2
  4038     0703  2F05               	goto	u861
  4039     0704  2F06               	goto	u860
  4040     0705                     u861:
  4041     0705  2EF8               	goto	l1563
  4042     0706                     u860:
  4043     0706                     l126:
  4044                           
  4045                           ;matrix_keypad.c: 55:     if (RB0 == 0)
  4046     0706  1283               	bcf	3,5	;RP0=0, select bank0
  4047     0707  1303               	bcf	3,6	;RP1=0, select bank0
  4048     0708  1806               	btfsc	6,0	;volatile
  4049     0709  2F0B               	goto	u871
  4050     070A  2F0C               	goto	u870
  4051     070B                     u871:
  4052     070B  2F0E               	goto	l127
  4053     070C                     u870:
  4054     070C                     l1565:
  4055                           
  4056                           ;matrix_keypad.c: 56:     {;matrix_keypad.c: 57:         return 4;
  4057     070C  3004               	movlw	4
  4058     070D  2F6F               	goto	l119
  4059     070E                     l127:	
  4060                           ;matrix_keypad.c: 59:     else if (RB1 == 0)
  4061                           
  4062     070E  1886               	btfsc	6,1	;volatile
  4063     070F  2F11               	goto	u881
  4064     0710  2F12               	goto	u880
  4065     0711                     u881:
  4066     0711  2F14               	goto	l129
  4067     0712                     u880:
  4068     0712                     l1571:
  4069                           
  4070                           ;matrix_keypad.c: 60:     {;matrix_keypad.c: 61:         return 5;
  4071     0712  3005               	movlw	5
  4072     0713  2F6F               	goto	l119
  4073     0714                     l129:	
  4074                           ;matrix_keypad.c: 63:     else if (RB2 == 0)
  4075                           
  4076     0714  1906               	btfsc	6,2	;volatile
  4077     0715  2F17               	goto	u891
  4078     0716  2F18               	goto	u890
  4079     0717                     u891:
  4080     0717  2F1A               	goto	l128
  4081     0718                     u890:
  4082     0718                     l1577:
  4083                           
  4084                           ;matrix_keypad.c: 64:     {;matrix_keypad.c: 65:         return 6;
  4085     0718  3006               	movlw	6
  4086     0719  2F6F               	goto	l119
  4087     071A                     l128:
  4088                           
  4089                           ;matrix_keypad.c: 68:     RD3 = 1;
  4090     071A  1588               	bsf	8,3	;volatile
  4091                           
  4092                           ;matrix_keypad.c: 69:     RD2 = 1;
  4093     071B  1508               	bsf	8,2	;volatile
  4094                           
  4095                           ;matrix_keypad.c: 70:     RD1 = 0;
  4096     071C  1088               	bcf	8,1	;volatile
  4097                           
  4098                           ;matrix_keypad.c: 71:     RD0 = 1;
  4099     071D  1408               	bsf	8,0	;volatile
  4100     071E                     l1581:
  4101                           
  4102                           ;matrix_keypad.c: 73:     for (i = 100; i--; );
  4103     071E  3064               	movlw	100
  4104     071F  00F2               	movwf	scan_keypad@i
  4105     0720  3000               	movlw	0
  4106     0721  00F3               	movwf	scan_keypad@i+1
  4107     0722                     l1583:
  4108     0722  30FF               	movlw	255
  4109     0723  07F2               	addwf	scan_keypad@i,f
  4110     0724  1803               	skipnc
  4111     0725  0AF3               	incf	scan_keypad@i+1,f
  4112     0726  30FF               	movlw	255
  4113     0727  07F3               	addwf	scan_keypad@i+1,f
  4114     0728  0A72               	incf	scan_keypad@i,w
  4115     0729  1D03               	skipz
  4116     072A  2F2F               	goto	u901
  4117     072B  0A73               	incf	scan_keypad@i+1,w
  4118     072C  1D03               	btfss	3,2
  4119     072D  2F2F               	goto	u901
  4120     072E  2F30               	goto	u900
  4121     072F                     u901:
  4122     072F  2F22               	goto	l1583
  4123     0730                     u900:
  4124     0730                     l134:
  4125                           
  4126                           ;matrix_keypad.c: 75:     if (RB0 == 0)
  4127     0730  1283               	bcf	3,5	;RP0=0, select bank0
  4128     0731  1303               	bcf	3,6	;RP1=0, select bank0
  4129     0732  1806               	btfsc	6,0	;volatile
  4130     0733  2F35               	goto	u911
  4131     0734  2F36               	goto	u910
  4132     0735                     u911:
  4133     0735  2F38               	goto	l135
  4134     0736                     u910:
  4135     0736                     l1585:
  4136                           
  4137                           ;matrix_keypad.c: 76:     {;matrix_keypad.c: 77:         return 7;
  4138     0736  3007               	movlw	7
  4139     0737  2F6F               	goto	l119
  4140     0738                     l135:	
  4141                           ;matrix_keypad.c: 79:     else if (RB1 == 0)
  4142                           
  4143     0738  1886               	btfsc	6,1	;volatile
  4144     0739  2F3B               	goto	u921
  4145     073A  2F3C               	goto	u920
  4146     073B                     u921:
  4147     073B  2F3E               	goto	l137
  4148     073C                     u920:
  4149     073C                     l1591:
  4150                           
  4151                           ;matrix_keypad.c: 80:     {;matrix_keypad.c: 81:         return 8;
  4152     073C  3008               	movlw	8
  4153     073D  2F6F               	goto	l119
  4154     073E                     l137:	
  4155                           ;matrix_keypad.c: 83:     else if (RB2 == 0)
  4156                           
  4157     073E  1906               	btfsc	6,2	;volatile
  4158     073F  2F41               	goto	u931
  4159     0740  2F42               	goto	u930
  4160     0741                     u931:
  4161     0741  2F44               	goto	l136
  4162     0742                     u930:
  4163     0742                     l1597:
  4164                           
  4165                           ;matrix_keypad.c: 84:     {;matrix_keypad.c: 85:         return 9;
  4166     0742  3009               	movlw	9
  4167     0743  2F6F               	goto	l119
  4168     0744                     l136:
  4169                           
  4170                           ;matrix_keypad.c: 88:     RD3 = 1;
  4171     0744  1588               	bsf	8,3	;volatile
  4172                           
  4173                           ;matrix_keypad.c: 89:     RD2 = 1;
  4174     0745  1508               	bsf	8,2	;volatile
  4175                           
  4176                           ;matrix_keypad.c: 90:     RD1 = 1;
  4177     0746  1488               	bsf	8,1	;volatile
  4178                           
  4179                           ;matrix_keypad.c: 91:     RD0 = 0;
  4180     0747  1008               	bcf	8,0	;volatile
  4181     0748                     l1601:
  4182                           
  4183                           ;matrix_keypad.c: 93:     for (i = 100; i--; );
  4184     0748  3064               	movlw	100
  4185     0749  00F2               	movwf	scan_keypad@i
  4186     074A  3000               	movlw	0
  4187     074B  00F3               	movwf	scan_keypad@i+1
  4188     074C                     l1603:
  4189     074C  30FF               	movlw	255
  4190     074D  07F2               	addwf	scan_keypad@i,f
  4191     074E  1803               	skipnc
  4192     074F  0AF3               	incf	scan_keypad@i+1,f
  4193     0750  30FF               	movlw	255
  4194     0751  07F3               	addwf	scan_keypad@i+1,f
  4195     0752  0A72               	incf	scan_keypad@i,w
  4196     0753  1D03               	skipz
  4197     0754  2F59               	goto	u941
  4198     0755  0A73               	incf	scan_keypad@i+1,w
  4199     0756  1D03               	btfss	3,2
  4200     0757  2F59               	goto	u941
  4201     0758  2F5A               	goto	u940
  4202     0759                     u941:
  4203     0759  2F4C               	goto	l1603
  4204     075A                     u940:
  4205     075A                     l142:
  4206                           
  4207                           ;matrix_keypad.c: 95:     if (RB0 == 0)
  4208     075A  1283               	bcf	3,5	;RP0=0, select bank0
  4209     075B  1303               	bcf	3,6	;RP1=0, select bank0
  4210     075C  1806               	btfsc	6,0	;volatile
  4211     075D  2F5F               	goto	u951
  4212     075E  2F60               	goto	u950
  4213     075F                     u951:
  4214     075F  2F62               	goto	l143
  4215     0760                     u950:
  4216     0760                     l1605:
  4217                           
  4218                           ;matrix_keypad.c: 96:     {;matrix_keypad.c: 97:         return '*';
  4219     0760  302A               	movlw	42
  4220     0761  2F6F               	goto	l119
  4221     0762                     l143:	
  4222                           ;matrix_keypad.c: 99:     else if (RB1 == 0)
  4223                           
  4224     0762  1886               	btfsc	6,1	;volatile
  4225     0763  2F65               	goto	u961
  4226     0764  2F66               	goto	u960
  4227     0765                     u961:
  4228     0765  2F68               	goto	l145
  4229     0766                     u960:
  4230     0766                     l1611:
  4231                           
  4232                           ;matrix_keypad.c: 100:     {;matrix_keypad.c: 101:         return 0;
  4233     0766  3000               	movlw	0
  4234     0767  2F6F               	goto	l119
  4235     0768                     l145:	
  4236                           ;matrix_keypad.c: 103:     else if (RB2 == 0)
  4237                           
  4238     0768  1906               	btfsc	6,2	;volatile
  4239     0769  2F6B               	goto	u971
  4240     076A  2F6C               	goto	u970
  4241     076B                     u971:
  4242     076B  2F6E               	goto	l1621
  4243     076C                     u970:
  4244     076C                     l1617:
  4245                           
  4246                           ;matrix_keypad.c: 104:     {;matrix_keypad.c: 105:         return '#';
  4247     076C  3023               	movlw	35
  4248     076D  2F6F               	goto	l119
  4249     076E                     l1621:
  4250                           
  4251                           ;matrix_keypad.c: 108:     return 0xFF;
  4252     076E  30FF               	movlw	255
  4253     076F                     l119:
  4254     076F  0008               	return
  4255     0770                     __end_of_scan_keypad:
  4256                           
  4257                           	psect	text13
  4258     0F5A                     __ptext13:	
  4259 ;; *************** function _power_on_screen *****************
  4260 ;; Defined at:
  4261 ;;		line 9 in file "microwave_oven.c"
  4262 ;; Parameters:    Size  Location     Type
  4263 ;;		None
  4264 ;; Auto vars:     Size  Location     Type
  4265 ;;  i               2    9[BANK0 ] unsigned int 
  4266 ;;  i               2    7[BANK0 ] unsigned int 
  4267 ;; Return value:  Size  Location     Type
  4268 ;;                  1    wreg      void 
  4269 ;; Registers used:
  4270 ;;		wreg, fsr0l, fsr0h, status,2, status,0, pclath, cstack
  4271 ;; Tracked objects:
  4272 ;;		On entry : 0/0
  4273 ;;		On exit  : 0/0
  4274 ;;		Unchanged: 0/0
  4275 ;; Data sizes:     COMMON   BANK0   BANK1   BANK3   BANK2
  4276 ;;      Params:         0       0       0       0       0
  4277 ;;      Locals:         0       4       0       0       0
  4278 ;;      Temps:          0       0       0       0       0
  4279 ;;      Totals:         0       4       0       0       0
  4280 ;;Total ram usage:        4 bytes
  4281 ;; Hardware stack levels used: 1
  4282 ;; Hardware stack levels required when called: 3
  4283 ;; This function calls:
  4284 ;;		_clcd_print
  4285 ;;		_clcd_putch
  4286 ;; This function is called by:
  4287 ;;		_main
  4288 ;; This function uses a non-reentrant model
  4289 ;;
  4290                           
  4291     0F5A                     _power_on_screen:	
  4292                           ;psect for function _power_on_screen
  4293                           
  4294     0F5A                     l1697:	
  4295                           ;incstack = 0
  4296                           ; Regs used in _power_on_screen: [wreg-fsr0h+status,2+status,0+pclath+cstack]
  4297                           
  4298                           
  4299                           ;microwave_oven.c: 10:     for(unsigned int i=0;i<16;i++){
  4300     0F5A  1283               	bcf	3,5	;RP0=0, select bank0
  4301     0F5B  1303               	bcf	3,6	;RP1=0, select bank0
  4302     0F5C  01A7               	clrf	power_on_screen@i
  4303     0F5D  01A8               	clrf	power_on_screen@i+1
  4304     0F5E                     l1703:
  4305                           
  4306                           ;microwave_oven.c: 11:         clcd_putch(0xFF,(0x80 + i));
  4307     0F5E  0827               	movf	power_on_screen@i,w
  4308     0F5F  3E80               	addlw	128
  4309     0F60  00A5               	movwf	clcd_putch@addr
  4310     0F61  30FF               	movlw	255
  4311     0F62  120A  158A  25B1  120A  158A  	fcall	_clcd_putch
  4312     0F67                     l1705:
  4313                           
  4314                           ;microwave_oven.c: 13:     }
  4315     0F67  3001               	movlw	1
  4316     0F68  1283               	bcf	3,5	;RP0=0, select bank0
  4317     0F69  1303               	bcf	3,6	;RP1=0, select bank0
  4318     0F6A  07A7               	addwf	power_on_screen@i,f
  4319     0F6B  1803               	skipnc
  4320     0F6C  0AA8               	incf	power_on_screen@i+1,f
  4321     0F6D  3000               	movlw	0
  4322     0F6E  07A8               	addwf	power_on_screen@i+1,f
  4323     0F6F                     l1707:
  4324     0F6F  3000               	movlw	0
  4325     0F70  0228               	subwf	power_on_screen@i+1,w
  4326     0F71  3010               	movlw	16
  4327     0F72  1903               	skipnz
  4328     0F73  0227               	subwf	power_on_screen@i,w
  4329     0F74  1C03               	skipc
  4330     0F75  2F77               	goto	u1151
  4331     0F76  2F78               	goto	u1150
  4332     0F77                     u1151:
  4333     0F77  2F5E               	goto	l1703
  4334     0F78                     u1150:
  4335     0F78                     l1709:
  4336                           
  4337                           ;microwave_oven.c: 14:     clcd_print("Powering ON",(0xC0 + 1));
  4338     0F78  3078               	movlw	(low ((STR_1-__stringbase)| (0+32768)))& (0+255)
  4339     0F79  00F6               	movwf	clcd_print@str
  4340     0F7A  30C1               	movlw	193
  4341     0F7B  00F7               	movwf	clcd_print@addr
  4342     0F7C  120A  158A  261C  120A  158A  	fcall	_clcd_print
  4343                           
  4344                           ;microwave_oven.c: 15:     clcd_print("Microwave Oven",(0x90 + 1));
  4345     0F81  3041               	movlw	(low ((STR_2-__stringbase)| (0+32768)))& (0+255)
  4346     0F82  00F6               	movwf	clcd_print@str
  4347     0F83  3091               	movlw	145
  4348     0F84  00F7               	movwf	clcd_print@addr
  4349     0F85  120A  158A  261C  120A  158A  	fcall	_clcd_print
  4350     0F8A                     l1711:
  4351                           
  4352                           ;microwave_oven.c: 16:     for(unsigned int i=0;i<16;i++){
  4353     0F8A  1283               	bcf	3,5	;RP0=0, select bank0
  4354     0F8B  1303               	bcf	3,6	;RP1=0, select bank0
  4355     0F8C  01A9               	clrf	power_on_screen@i_57
  4356     0F8D  01AA               	clrf	power_on_screen@i_57+1
  4357     0F8E                     l1717:
  4358                           
  4359                           ;microwave_oven.c: 17:         clcd_putch(0xFF,(0xD0 + i));
  4360     0F8E  0829               	movf	power_on_screen@i_57,w
  4361     0F8F  3ED0               	addlw	208
  4362     0F90  00A5               	movwf	clcd_putch@addr
  4363     0F91  30FF               	movlw	255
  4364     0F92  120A  158A  25B1  120A  158A  	fcall	_clcd_putch
  4365     0F97                     l1719:
  4366                           
  4367                           ;microwave_oven.c: 19:     }
  4368     0F97  3001               	movlw	1
  4369     0F98  1283               	bcf	3,5	;RP0=0, select bank0
  4370     0F99  1303               	bcf	3,6	;RP1=0, select bank0
  4371     0F9A  07A9               	addwf	power_on_screen@i_57,f
  4372     0F9B  1803               	skipnc
  4373     0F9C  0AAA               	incf	power_on_screen@i_57+1,f
  4374     0F9D  3000               	movlw	0
  4375     0F9E  07AA               	addwf	power_on_screen@i_57+1,f
  4376     0F9F                     l1721:
  4377     0F9F  3000               	movlw	0
  4378     0FA0  022A               	subwf	power_on_screen@i_57+1,w
  4379     0FA1  3010               	movlw	16
  4380     0FA2  1903               	skipnz
  4381     0FA3  0229               	subwf	power_on_screen@i_57,w
  4382     0FA4  1C03               	skipc
  4383     0FA5  2FA7               	goto	u1161
  4384     0FA6  2FA8               	goto	u1160
  4385     0FA7                     u1161:
  4386     0FA7  2F8E               	goto	l1717
  4387     0FA8                     u1160:
  4388     0FA8                     l29:
  4389     0FA8  0008               	return
  4390     0FA9                     __end_of_power_on_screen:
  4391                           
  4392                           	psect	text14
  4393     0DB1                     __ptext14:	
  4394 ;; *************** function _clcd_putch *****************
  4395 ;; Defined at:
  4396 ;;		line 53 in file "clcd.c"
  4397 ;; Parameters:    Size  Location     Type
  4398 ;;  data            1    wreg     const unsigned char 
  4399 ;;  addr            1    5[BANK0 ] unsigned char 
  4400 ;; Auto vars:     Size  Location     Type
  4401 ;;  data            1    6[BANK0 ] const unsigned char 
  4402 ;; Return value:  Size  Location     Type
  4403 ;;                  1    wreg      void 
  4404 ;; Registers used:
  4405 ;;		wreg, status,2, status,0, pclath, cstack
  4406 ;; Tracked objects:
  4407 ;;		On entry : 0/0
  4408 ;;		On exit  : 0/0
  4409 ;;		Unchanged: 0/0
  4410 ;; Data sizes:     COMMON   BANK0   BANK1   BANK3   BANK2
  4411 ;;      Params:         0       1       0       0       0
  4412 ;;      Locals:         0       1       0       0       0
  4413 ;;      Temps:          0       0       0       0       0
  4414 ;;      Totals:         0       2       0       0       0
  4415 ;;Total ram usage:        2 bytes
  4416 ;; Hardware stack levels used: 1
  4417 ;; Hardware stack levels required when called: 2
  4418 ;; This function calls:
  4419 ;;		_clcd_write
  4420 ;; This function is called by:
  4421 ;;		_power_on_screen
  4422 ;;		_set_time
  4423 ;;		_time_display
  4424 ;;		_set_temp
  4425 ;; This function uses a non-reentrant model
  4426 ;;
  4427                           
  4428     0DB1                     _clcd_putch:	
  4429                           ;psect for function _clcd_putch
  4430                           
  4431                           
  4432                           ;incstack = 0
  4433                           ; Regs used in _clcd_putch: [wreg+status,2+status,0+pclath+cstack]
  4434                           ;clcd_putch@data stored from wreg
  4435     0DB1  1283               	bcf	3,5	;RP0=0, select bank0
  4436     0DB2  1303               	bcf	3,6	;RP1=0, select bank0
  4437     0DB3  00A6               	movwf	clcd_putch@data
  4438     0DB4                     l1513:
  4439                           
  4440                           ;clcd.c: 53: void clcd_putch(const char data, unsigned char addr);clcd.c: 54: {;clcd.c: 
      +                          55:     clcd_write(addr, 0);
  4441     0DB4  01F2               	clrf	clcd_write@mode
  4442     0DB5  0825               	movf	clcd_putch@addr,w
  4443     0DB6  120A  158A  2666  120A  158A  	fcall	_clcd_write
  4444                           
  4445                           ;clcd.c: 56:     clcd_write(data, 1);
  4446     0DBB  01F2               	clrf	clcd_write@mode
  4447     0DBC  0AF2               	incf	clcd_write@mode,f
  4448     0DBD  1283               	bcf	3,5	;RP0=0, select bank0
  4449     0DBE  1303               	bcf	3,6	;RP1=0, select bank0
  4450     0DBF  0826               	movf	clcd_putch@data,w
  4451     0DC0  120A  158A  2666  120A  158A  	fcall	_clcd_write
  4452     0DC5                     l180:
  4453     0DC5  0008               	return
  4454     0DC6                     __end_of_clcd_putch:
  4455                           
  4456                           	psect	text15
  4457     0DDB                     __ptext15:	
  4458 ;; *************** function _init_config *****************
  4459 ;; Defined at:
  4460 ;;		line 20 in file "main.c"
  4461 ;; Parameters:    Size  Location     Type
  4462 ;;		None
  4463 ;; Auto vars:     Size  Location     Type
  4464 ;;		None
  4465 ;; Return value:  Size  Location     Type
  4466 ;;                  1    wreg      void 
  4467 ;; Registers used:
  4468 ;;		wreg, status,2, status,0, pclath, cstack
  4469 ;; Tracked objects:
  4470 ;;		On entry : 0/0
  4471 ;;		On exit  : 0/0
  4472 ;;		Unchanged: 0/0
  4473 ;; Data sizes:     COMMON   BANK0   BANK1   BANK3   BANK2
  4474 ;;      Params:         0       0       0       0       0
  4475 ;;      Locals:         0       0       0       0       0
  4476 ;;      Temps:          0       0       0       0       0
  4477 ;;      Totals:         0       0       0       0       0
  4478 ;;Total ram usage:        0 bytes
  4479 ;; Hardware stack levels used: 1
  4480 ;; Hardware stack levels required when called: 4
  4481 ;; This function calls:
  4482 ;;		_init_clcd
  4483 ;;		_init_matrix_keypad
  4484 ;;		_init_timer2
  4485 ;; This function is called by:
  4486 ;;		_main
  4487 ;; This function uses a non-reentrant model
  4488 ;;
  4489                           
  4490     0DDB                     _init_config:	
  4491                           ;psect for function _init_config
  4492                           
  4493     0DDB                     l1941:	
  4494                           ;incstack = 0
  4495                           ; Regs used in _init_config: [wreg+status,2+status,0+pclath+cstack]
  4496                           
  4497                           
  4498                           ;main.c: 22:     init_clcd();
  4499     0DDB  120A  158A  256E  120A  158A  	fcall	_init_clcd
  4500                           
  4501                           ;main.c: 23:     init_matrix_keypad();
  4502     0DE0  120A  158A  257B  120A  158A  	fcall	_init_matrix_keypad
  4503     0DE5                     l1943:
  4504                           
  4505                           ;main.c: 26:     TRISC2 = 0;
  4506     0DE5  1683               	bsf	3,5	;RP0=1, select bank1
  4507     0DE6  1303               	bcf	3,6	;RP1=0, select bank1
  4508     0DE7  1107               	bcf	7,2	;volatile
  4509     0DE8                     l1945:
  4510                           
  4511                           ;main.c: 27:     RC2 = 0;
  4512     0DE8  1283               	bcf	3,5	;RP0=0, select bank0
  4513     0DE9  1303               	bcf	3,6	;RP1=0, select bank0
  4514     0DEA  1107               	bcf	7,2	;volatile
  4515     0DEB                     l1947:
  4516                           
  4517                           ;main.c: 29:     TRISC1 = 0;
  4518     0DEB  1683               	bsf	3,5	;RP0=1, select bank1
  4519     0DEC  1303               	bcf	3,6	;RP1=0, select bank1
  4520     0DED  1087               	bcf	7,1	;volatile
  4521     0DEE                     l1949:
  4522                           
  4523                           ;main.c: 30:     RC1 = 0;
  4524     0DEE  1283               	bcf	3,5	;RP0=0, select bank0
  4525     0DEF  1303               	bcf	3,6	;RP1=0, select bank0
  4526     0DF0  1087               	bcf	7,1	;volatile
  4527     0DF1                     l1951:
  4528                           
  4529                           ;main.c: 33:     init_timer2();
  4530     0DF1  120A  158A  258B  120A  158A  	fcall	_init_timer2
  4531     0DF6                     l1953:
  4532                           
  4533                           ;main.c: 34:     PEIE = 1;
  4534     0DF6  170B               	bsf	11,6	;volatile
  4535     0DF7                     l1955:
  4536                           
  4537                           ;main.c: 35:     GIE = 1;
  4538     0DF7  178B               	bsf	11,7	;volatile
  4539     0DF8                     l246:
  4540     0DF8  0008               	return
  4541     0DF9                     __end_of_init_config:
  4542                           
  4543                           	psect	text16
  4544     0D8B                     __ptext16:	
  4545 ;; *************** function _init_timer2 *****************
  4546 ;; Defined at:
  4547 ;;		line 12 in file "timers.c"
  4548 ;; Parameters:    Size  Location     Type
  4549 ;;		None
  4550 ;; Auto vars:     Size  Location     Type
  4551 ;;		None
  4552 ;; Return value:  Size  Location     Type
  4553 ;;                  1    wreg      void 
  4554 ;; Registers used:
  4555 ;;		None
  4556 ;; Tracked objects:
  4557 ;;		On entry : 0/0
  4558 ;;		On exit  : 0/0
  4559 ;;		Unchanged: 0/0
  4560 ;; Data sizes:     COMMON   BANK0   BANK1   BANK3   BANK2
  4561 ;;      Params:         0       0       0       0       0
  4562 ;;      Locals:         0       0       0       0       0
  4563 ;;      Temps:          0       0       0       0       0
  4564 ;;      Totals:         0       0       0       0       0
  4565 ;;Total ram usage:        0 bytes
  4566 ;; Hardware stack levels used: 1
  4567 ;; Hardware stack levels required when called: 1
  4568 ;; This function calls:
  4569 ;;		Nothing
  4570 ;; This function is called by:
  4571 ;;		_init_config
  4572 ;; This function uses a non-reentrant model
  4573 ;;
  4574                           
  4575     0D8B                     _init_timer2:	
  4576                           ;psect for function _init_timer2
  4577                           
  4578     0D8B                     l1633:	
  4579                           ;incstack = 0
  4580                           ; Regs used in _init_timer2: []
  4581                           
  4582                           
  4583                           ;timers.c: 15:     TOUTPS3 = 0;
  4584     0D8B  1283               	bcf	3,5	;RP0=0, select bank0
  4585     0D8C  1303               	bcf	3,6	;RP1=0, select bank0
  4586     0D8D  1312               	bcf	18,6	;volatile
  4587                           
  4588                           ;timers.c: 16:     TOUTPS2 = 0;
  4589     0D8E  1292               	bcf	18,5	;volatile
  4590                           
  4591                           ;timers.c: 17:     TOUTPS1 = 0;
  4592     0D8F  1212               	bcf	18,4	;volatile
  4593                           
  4594                           ;timers.c: 19:     TMR2ON = 1;
  4595     0D90  1512               	bsf	18,2	;volatile
  4596                           
  4597                           ;timers.c: 21:     T2CKPS1 = 0;
  4598     0D91  1092               	bcf	18,1	;volatile
  4599                           
  4600                           ;timers.c: 22:     T2CKPS0 = 0;
  4601     0D92  1012               	bcf	18,0	;volatile
  4602                           
  4603                           ;timers.c: 24:     TMR2IE = 1;
  4604     0D93  1683               	bsf	3,5	;RP0=1, select bank1
  4605     0D94  1303               	bcf	3,6	;RP1=0, select bank1
  4606     0D95  148C               	bsf	12,1	;volatile
  4607                           
  4608                           ;timers.c: 26:     TMR2IF = 0;
  4609     0D96  1283               	bcf	3,5	;RP0=0, select bank0
  4610     0D97  1303               	bcf	3,6	;RP1=0, select bank0
  4611     0D98  108C               	bcf	12,1	;volatile
  4612                           
  4613                           ;timers.c: 28:     PR2 = 250;
  4614     0D99  30FA               	movlw	250
  4615     0D9A  1683               	bsf	3,5	;RP0=1, select bank1
  4616     0D9B  1303               	bcf	3,6	;RP1=0, select bank1
  4617     0D9C  0092               	movwf	18	;volatile
  4618     0D9D                     l305:
  4619     0D9D  0008               	return
  4620     0D9E                     __end_of_init_timer2:
  4621                           
  4622                           	psect	text17
  4623     0D7B                     __ptext17:	
  4624 ;; *************** function _init_matrix_keypad *****************
  4625 ;; Defined at:
  4626 ;;		line 4 in file "matrix_keypad.c"
  4627 ;; Parameters:    Size  Location     Type
  4628 ;;		None
  4629 ;; Auto vars:     Size  Location     Type
  4630 ;;		None
  4631 ;; Return value:  Size  Location     Type
  4632 ;;                  1    wreg      void 
  4633 ;; Registers used:
  4634 ;;		wreg, status,2
  4635 ;; Tracked objects:
  4636 ;;		On entry : 0/0
  4637 ;;		On exit  : 0/0
  4638 ;;		Unchanged: 0/0
  4639 ;; Data sizes:     COMMON   BANK0   BANK1   BANK3   BANK2
  4640 ;;      Params:         0       0       0       0       0
  4641 ;;      Locals:         0       0       0       0       0
  4642 ;;      Temps:          0       0       0       0       0
  4643 ;;      Totals:         0       0       0       0       0
  4644 ;;Total ram usage:        0 bytes
  4645 ;; Hardware stack levels used: 1
  4646 ;; Hardware stack levels required when called: 1
  4647 ;; This function calls:
  4648 ;;		Nothing
  4649 ;; This function is called by:
  4650 ;;		_init_config
  4651 ;; This function uses a non-reentrant model
  4652 ;;
  4653                           
  4654     0D7B                     _init_matrix_keypad:	
  4655                           ;psect for function _init_matrix_keypad
  4656                           
  4657     0D7B                     l1527:	
  4658                           ;incstack = 0
  4659                           ; Regs used in _init_matrix_keypad: [wreg+status,2]
  4660                           
  4661                           
  4662                           ;matrix_keypad.c: 8:     TRISB = TRISB | 0x07;
  4663     0D7B  1683               	bsf	3,5	;RP0=1, select bank1
  4664     0D7C  1303               	bcf	3,6	;RP1=0, select bank1
  4665     0D7D  0806               	movf	6,w	;volatile
  4666     0D7E  3807               	iorlw	7
  4667     0D7F  0086               	movwf	6	;volatile
  4668                           
  4669                           ;matrix_keypad.c: 12:     TRISD = TRISD & 0xF0;
  4670     0D80  0808               	movf	8,w	;volatile
  4671     0D81  39F0               	andlw	240
  4672     0D82  0088               	movwf	8	;volatile
  4673     0D83                     l1529:
  4674                           
  4675                           ;matrix_keypad.c: 15:     nRBPU = 0;
  4676     0D83  1381               	bcf	1,7	;volatile
  4677     0D84                     l1531:
  4678                           
  4679                           ;matrix_keypad.c: 18:     RD3 = 1;
  4680     0D84  1283               	bcf	3,5	;RP0=0, select bank0
  4681     0D85  1303               	bcf	3,6	;RP1=0, select bank0
  4682     0D86  1588               	bsf	8,3	;volatile
  4683     0D87                     l1533:
  4684                           
  4685                           ;matrix_keypad.c: 19:     RD2 = 1;
  4686     0D87  1508               	bsf	8,2	;volatile
  4687     0D88                     l1535:
  4688                           
  4689                           ;matrix_keypad.c: 20:     RD1 = 1;
  4690     0D88  1488               	bsf	8,1	;volatile
  4691     0D89                     l1537:
  4692                           
  4693                           ;matrix_keypad.c: 21:     RD0 = 1;
  4694     0D89  1408               	bsf	8,0	;volatile
  4695     0D8A                     l112:
  4696     0D8A  0008               	return
  4697     0D8B                     __end_of_init_matrix_keypad:
  4698                           
  4699                           	psect	text18
  4700     0D6E                     __ptext18:	
  4701 ;; *************** function _init_clcd *****************
  4702 ;; Defined at:
  4703 ;;		line 71 in file "clcd.c"
  4704 ;; Parameters:    Size  Location     Type
  4705 ;;		None
  4706 ;; Auto vars:     Size  Location     Type
  4707 ;;		None
  4708 ;; Return value:  Size  Location     Type
  4709 ;;                  1    wreg      void 
  4710 ;; Registers used:
  4711 ;;		wreg, status,2, status,0, pclath, cstack
  4712 ;; Tracked objects:
  4713 ;;		On entry : 0/0
  4714 ;;		On exit  : 0/0
  4715 ;;		Unchanged: 0/0
  4716 ;; Data sizes:     COMMON   BANK0   BANK1   BANK3   BANK2
  4717 ;;      Params:         0       0       0       0       0
  4718 ;;      Locals:         0       0       0       0       0
  4719 ;;      Temps:          0       0       0       0       0
  4720 ;;      Totals:         0       0       0       0       0
  4721 ;;Total ram usage:        0 bytes
  4722 ;; Hardware stack levels used: 1
  4723 ;; Hardware stack levels required when called: 3
  4724 ;; This function calls:
  4725 ;;		_init_display_controller
  4726 ;; This function is called by:
  4727 ;;		_init_config
  4728 ;; This function uses a non-reentrant model
  4729 ;;
  4730                           
  4731     0D6E                     _init_clcd:	
  4732                           ;psect for function _init_clcd
  4733                           
  4734     0D6E                     l1625:	
  4735                           ;incstack = 0
  4736                           ; Regs used in _init_clcd: [wreg+status,2+status,0+pclath+cstack]
  4737                           
  4738                           
  4739                           ;clcd.c: 75:     TRISD= TRISD & 0x0F;
  4740     0D6E  1683               	bsf	3,5	;RP0=1, select bank1
  4741     0D6F  1303               	bcf	3,6	;RP1=0, select bank1
  4742     0D70  0808               	movf	8,w	;volatile
  4743     0D71  390F               	andlw	15
  4744     0D72  0088               	movwf	8	;volatile
  4745     0D73                     l1627:
  4746                           
  4747                           ;clcd.c: 76:     TRISE2=0;
  4748     0D73  1109               	bcf	9,2	;volatile
  4749     0D74                     l1629:
  4750                           
  4751                           ;clcd.c: 77:     TRISE1=0;
  4752     0D74  1089               	bcf	9,1	;volatile
  4753     0D75                     l1631:
  4754                           
  4755                           ;clcd.c: 78:     init_display_controller();
  4756     0D75  120A  118A  2494  120A  158A  	fcall	_init_display_controller
  4757     0D7A                     l189:
  4758     0D7A  0008               	return
  4759     0D7B                     __end_of_init_clcd:
  4760                           
  4761                           	psect	text19
  4762     0494                     __ptext19:	
  4763 ;; *************** function _init_display_controller *****************
  4764 ;; Defined at:
  4765 ;;		line 28 in file "clcd.c"
  4766 ;; Parameters:    Size  Location     Type
  4767 ;;		None
  4768 ;; Auto vars:     Size  Location     Type
  4769 ;;		None
  4770 ;; Return value:  Size  Location     Type
  4771 ;;                  1    wreg      void 
  4772 ;; Registers used:
  4773 ;;		wreg, status,2, status,0, pclath, cstack
  4774 ;; Tracked objects:
  4775 ;;		On entry : 0/0
  4776 ;;		On exit  : 0/0
  4777 ;;		Unchanged: 0/0
  4778 ;; Data sizes:     COMMON   BANK0   BANK1   BANK3   BANK2
  4779 ;;      Params:         0       0       0       0       0
  4780 ;;      Locals:         0       0       0       0       0
  4781 ;;      Temps:          2       0       0       0       0
  4782 ;;      Totals:         2       0       0       0       0
  4783 ;;Total ram usage:        2 bytes
  4784 ;; Hardware stack levels used: 1
  4785 ;; Hardware stack levels required when called: 2
  4786 ;; This function calls:
  4787 ;;		_clcd_write
  4788 ;; This function is called by:
  4789 ;;		_init_clcd
  4790 ;; This function uses a non-reentrant model
  4791 ;;
  4792                           
  4793     0494                     _init_display_controller:	
  4794                           ;psect for function _init_display_controller
  4795                           
  4796     0494                     l1489:	
  4797                           ;incstack = 0
  4798                           ; Regs used in _init_display_controller: [wreg+status,2+status,0+pclath+cstack]
  4799                           
  4800                           
  4801                           ;clcd.c: 31:     _delay((unsigned long)((30)*(20000000/4000.0)));
  4802     0494  30C3               	movlw	195
  4803     0495  00F7               	movwf	??_init_display_controller+1
  4804     0496  30CD               	movlw	205
  4805     0497  00F6               	movwf	??_init_display_controller
  4806     0498                     u2677:
  4807     0498  0BF6               	decfsz	??_init_display_controller,f
  4808     0499  2C98               	goto	u2677
  4809     049A  0BF7               	decfsz	??_init_display_controller+1,f
  4810     049B  2C98               	goto	u2677
  4811     049C                     l1491:
  4812                           
  4813                           ;clcd.c: 34:     clcd_write(0x33, 0);
  4814     049C  01F2               	clrf	clcd_write@mode
  4815     049D  3033               	movlw	51
  4816     049E  120A  158A  2666  120A  118A  	fcall	_clcd_write
  4817     04A3                     l1493:
  4818                           
  4819                           ;clcd.c: 35:     _delay((unsigned long)((4100)*(20000000/4000000.0)));
  4820     04A3  301B               	movlw	27
  4821     04A4  00F7               	movwf	??_init_display_controller+1
  4822     04A5  309E               	movlw	158
  4823     04A6  00F6               	movwf	??_init_display_controller
  4824     04A7                     u2687:
  4825     04A7  0BF6               	decfsz	??_init_display_controller,f
  4826     04A8  2CA7               	goto	u2687
  4827     04A9  0BF7               	decfsz	??_init_display_controller+1,f
  4828     04AA  2CA7               	goto	u2687
  4829     04AB  0000               	nop
  4830                           
  4831                           ;clcd.c: 36:     clcd_write(0x33, 0);
  4832     04AC  01F2               	clrf	clcd_write@mode
  4833     04AD  3033               	movlw	51
  4834     04AE  120A  158A  2666  120A  118A  	fcall	_clcd_write
  4835     04B3                     l1495:
  4836                           
  4837                           ;clcd.c: 37:     _delay((unsigned long)((100)*(20000000/4000000.0)));
  4838     04B3  30A6               	movlw	166
  4839     04B4  00F6               	movwf	??_init_display_controller
  4840     04B5                     u2697:
  4841     04B5  0BF6               	decfsz	??_init_display_controller,f
  4842     04B6  2CB5               	goto	u2697
  4843     04B7  0000               	nop
  4844     04B8                     l1497:
  4845                           
  4846                           ;clcd.c: 38:     clcd_write(0x33, 0);
  4847     04B8  01F2               	clrf	clcd_write@mode
  4848     04B9  3033               	movlw	51
  4849     04BA  120A  158A  2666  120A  118A  	fcall	_clcd_write
  4850     04BF                     l1499:
  4851                           
  4852                           ;clcd.c: 39:     _delay((unsigned long)((1)*(20000000/4000000.0)));
  4853     04BF  2CC0               	nop2	;2 cycle nop
  4854     04C0  2CC1               	nop2	;2 cycle nop
  4855     04C1  0000               	nop
  4856     04C2                     l1501:
  4857                           
  4858                           ;clcd.c: 41:     clcd_write(0x02, 0);
  4859     04C2  01F2               	clrf	clcd_write@mode
  4860     04C3  3002               	movlw	2
  4861     04C4  120A  158A  2666  120A  118A  	fcall	_clcd_write
  4862     04C9                     l1503:
  4863                           
  4864                           ;clcd.c: 42:     _delay((unsigned long)((100)*(20000000/4000000.0)));
  4865     04C9  30A6               	movlw	166
  4866     04CA  00F6               	movwf	??_init_display_controller
  4867     04CB                     u2707:
  4868     04CB  0BF6               	decfsz	??_init_display_controller,f
  4869     04CC  2CCB               	goto	u2707
  4870     04CD  0000               	nop
  4871                           
  4872                           ;clcd.c: 43:     clcd_write(0x28, 0);
  4873     04CE  01F2               	clrf	clcd_write@mode
  4874     04CF  3028               	movlw	40
  4875     04D0  120A  158A  2666  120A  118A  	fcall	_clcd_write
  4876     04D5                     l1505:
  4877                           
  4878                           ;clcd.c: 44:     _delay((unsigned long)((100)*(20000000/4000000.0)));
  4879     04D5  30A6               	movlw	166
  4880     04D6  00F6               	movwf	??_init_display_controller
  4881     04D7                     u2717:
  4882     04D7  0BF6               	decfsz	??_init_display_controller,f
  4883     04D8  2CD7               	goto	u2717
  4884     04D9  0000               	nop
  4885     04DA                     l1507:
  4886                           
  4887                           ;clcd.c: 45:     clcd_write(0x01, 0);
  4888     04DA  01F2               	clrf	clcd_write@mode
  4889     04DB  3001               	movlw	1
  4890     04DC  120A  158A  2666  120A  118A  	fcall	_clcd_write
  4891                           
  4892                           ;clcd.c: 46:     _delay((unsigned long)((500)*(20000000/4000000.0)));
  4893     04E1  3004               	movlw	4
  4894     04E2  00F7               	movwf	??_init_display_controller+1
  4895     04E3  303D               	movlw	61
  4896     04E4  00F6               	movwf	??_init_display_controller
  4897     04E5                     u2727:
  4898     04E5  0BF6               	decfsz	??_init_display_controller,f
  4899     04E6  2CE5               	goto	u2727
  4900     04E7  0BF7               	decfsz	??_init_display_controller+1,f
  4901     04E8  2CE5               	goto	u2727
  4902     04E9  2CEA               	nop2
  4903     04EA                     l1509:
  4904                           
  4905                           ;clcd.c: 47:     clcd_write(0x0C, 0);
  4906     04EA  01F2               	clrf	clcd_write@mode
  4907     04EB  300C               	movlw	12
  4908     04EC  120A  158A  2666  120A  118A  	fcall	_clcd_write
  4909     04F1                     l1511:
  4910                           
  4911                           ;clcd.c: 48:     _delay((unsigned long)((100)*(20000000/4000000.0)));
  4912     04F1  30A6               	movlw	166
  4913     04F2  00F6               	movwf	??_init_display_controller
  4914     04F3                     u2737:
  4915     04F3  0BF6               	decfsz	??_init_display_controller,f
  4916     04F4  2CF3               	goto	u2737
  4917     04F5  0000               	nop
  4918     04F6                     l177:
  4919     04F6  0008               	return
  4920     04F7                     __end_of_init_display_controller:
  4921                           
  4922                           	psect	text20
  4923     0D64                     __ptext20:	
  4924 ;; *************** function _heat_food *****************
  4925 ;; Defined at:
  4926 ;;		line 131 in file "microwave_oven.c"
  4927 ;; Parameters:    Size  Location     Type
  4928 ;;		None
  4929 ;; Auto vars:     Size  Location     Type
  4930 ;;		None
  4931 ;; Return value:  Size  Location     Type
  4932 ;;                  1    wreg      void 
  4933 ;; Registers used:
  4934 ;;		status,2
  4935 ;; Tracked objects:
  4936 ;;		On entry : 0/0
  4937 ;;		On exit  : 0/0
  4938 ;;		Unchanged: 0/0
  4939 ;; Data sizes:     COMMON   BANK0   BANK1   BANK3   BANK2
  4940 ;;      Params:         0       0       0       0       0
  4941 ;;      Locals:         0       0       0       0       0
  4942 ;;      Temps:          0       0       0       0       0
  4943 ;;      Totals:         0       0       0       0       0
  4944 ;;Total ram usage:        0 bytes
  4945 ;; Hardware stack levels used: 1
  4946 ;; Hardware stack levels required when called: 1
  4947 ;; This function calls:
  4948 ;;		Nothing
  4949 ;; This function is called by:
  4950 ;;		_main
  4951 ;; This function uses a non-reentrant model
  4952 ;;
  4953                           
  4954     0D64                     _heat_food:	
  4955                           ;psect for function _heat_food
  4956                           
  4957     0D64                     l1831:	
  4958                           ;incstack = 0
  4959                           ; Regs used in _heat_food: [status,2]
  4960                           
  4961                           
  4962                           ;microwave_oven.c: 133:             sec=30;
  4963     0D64  301E               	movlw	30
  4964     0D65  1283               	bcf	3,5	;RP0=0, select bank0
  4965     0D66  1303               	bcf	3,6	;RP1=0, select bank0
  4966     0D67  00B9               	movwf	_sec
  4967     0D68                     l1833:
  4968                           
  4969                           ;microwave_oven.c: 134:             min=0;
  4970     0D68  01BA               	clrf	_min
  4971     0D69                     l1835:
  4972                           
  4973                           ;microwave_oven.c: 135:             RC2=1;
  4974     0D69  1507               	bsf	7,2	;volatile
  4975     0D6A                     l1837:
  4976                           
  4977                           ;microwave_oven.c: 136:             TMR2ON=1;
  4978     0D6A  1512               	bsf	18,2	;volatile
  4979     0D6B                     l1839:
  4980                           
  4981                           ;microwave_oven.c: 137:             operational_flag=0XDD;
  4982     0D6B  30DD               	movlw	221
  4983     0D6C  00BB               	movwf	_operational_flag
  4984     0D6D                     l65:
  4985     0D6D  0008               	return
  4986     0D6E                     __end_of_heat_food:
  4987                           
  4988                           	psect	text21
  4989     0E41                     __ptext21:	
  4990 ;; *************** function _display_menu_screen *****************
  4991 ;; Defined at:
  4992 ;;		line 26 in file "microwave_oven.c"
  4993 ;; Parameters:    Size  Location     Type
  4994 ;;		None
  4995 ;; Auto vars:     Size  Location     Type
  4996 ;;		None
  4997 ;; Return value:  Size  Location     Type
  4998 ;;                  1    wreg      void 
  4999 ;; Registers used:
  5000 ;;		wreg, fsr0l, fsr0h, status,2, status,0, pclath, cstack
  5001 ;; Tracked objects:
  5002 ;;		On entry : 0/0
  5003 ;;		On exit  : 0/0
  5004 ;;		Unchanged: 0/0
  5005 ;; Data sizes:     COMMON   BANK0   BANK1   BANK3   BANK2
  5006 ;;      Params:         0       0       0       0       0
  5007 ;;      Locals:         0       0       0       0       0
  5008 ;;      Temps:          0       0       0       0       0
  5009 ;;      Totals:         0       0       0       0       0
  5010 ;;Total ram usage:        0 bytes
  5011 ;; Hardware stack levels used: 1
  5012 ;; Hardware stack levels required when called: 3
  5013 ;; This function calls:
  5014 ;;		_clcd_print
  5015 ;; This function is called by:
  5016 ;;		_main
  5017 ;; This function uses a non-reentrant model
  5018 ;;
  5019                           
  5020     0E41                     _display_menu_screen:	
  5021                           ;psect for function _display_menu_screen
  5022                           
  5023     0E41                     l1723:	
  5024                           ;incstack = 0
  5025                           ; Regs used in _display_menu_screen: [wreg-fsr0h+status,2+status,0+pclath+cstack]
  5026                           
  5027                           
  5028                           ;microwave_oven.c: 27:     clcd_print("1.Micro ",(0x80 + 0));
  5029     0E41  30A4               	movlw	(low ((STR_3-__stringbase)| (0+32768)))& (0+255)
  5030     0E42  00F6               	movwf	clcd_print@str
  5031     0E43  3080               	movlw	128
  5032     0E44  00F7               	movwf	clcd_print@addr
  5033     0E45  120A  158A  261C  120A  158A  	fcall	_clcd_print
  5034                           
  5035                           ;microwave_oven.c: 28:     clcd_print("2.Grill",(0xC0 + 0));
  5036     0E4A  30BD               	movlw	(low ((STR_4-__stringbase)| (0+32768)))& (0+255)
  5037     0E4B  00F6               	movwf	clcd_print@str
  5038     0E4C  30C0               	movlw	192
  5039     0E4D  00F7               	movwf	clcd_print@addr
  5040     0E4E  120A  158A  261C  120A  158A  	fcall	_clcd_print
  5041                           
  5042                           ;microwave_oven.c: 29:     clcd_print("3.Convention",(0x90 + 0));
  5043     0E53  306B               	movlw	(low ((STR_5-__stringbase)| (0+32768)))& (0+255)
  5044     0E54  00F6               	movwf	clcd_print@str
  5045     0E55  3090               	movlw	144
  5046     0E56  00F7               	movwf	clcd_print@addr
  5047     0E57  120A  158A  261C  120A  158A  	fcall	_clcd_print
  5048                           
  5049                           ;microwave_oven.c: 30:     clcd_print("4.Start",(0xD0 + 0));
  5050     0E5C  30C5               	movlw	(low ((STR_6-__stringbase)| (0+32768)))& (0+255)
  5051     0E5D  00F6               	movwf	clcd_print@str
  5052     0E5E  30D0               	movlw	208
  5053     0E5F  00F7               	movwf	clcd_print@addr
  5054     0E60  120A  158A  261C  120A  158A  	fcall	_clcd_print
  5055     0E65                     l35:
  5056     0E65  0008               	return
  5057     0E66                     __end_of_display_menu_screen:
  5058                           
  5059                           	psect	text22
  5060     0E1C                     __ptext22:	
  5061 ;; *************** function _clcd_print *****************
  5062 ;; Defined at:
  5063 ;;		line 60 in file "clcd.c"
  5064 ;; Parameters:    Size  Location     Type
  5065 ;;  str             1    6[COMMON] PTR const unsigned char 
  5066 ;;		 -> STR_22(11), STR_21(4), STR_20(10), STR_19(13), 
  5067 ;;		 -> STR_18(17), STR_17(7), STR_16(14), STR_15(16), 
  5068 ;;		 -> STR_14(11), STR_13(7), STR_12(8), STR_11(15), 
  5069 ;;		 -> STR_10(8), STR_9(17), STR_8(7), STR_7(16), 
  5070 ;;		 -> STR_6(8), STR_5(13), STR_4(8), STR_3(9), 
  5071 ;;		 -> STR_2(15), STR_1(12), 
  5072 ;;  addr            1    7[COMMON] unsigned char 
  5073 ;; Auto vars:     Size  Location     Type
  5074 ;;		None
  5075 ;; Return value:  Size  Location     Type
  5076 ;;                  1    wreg      void 
  5077 ;; Registers used:
  5078 ;;		wreg, fsr0l, fsr0h, status,2, status,0, pclath, cstack
  5079 ;; Tracked objects:
  5080 ;;		On entry : 0/0
  5081 ;;		On exit  : 0/0
  5082 ;;		Unchanged: 0/0
  5083 ;; Data sizes:     COMMON   BANK0   BANK1   BANK3   BANK2
  5084 ;;      Params:         2       0       0       0       0
  5085 ;;      Locals:         0       0       0       0       0
  5086 ;;      Temps:          0       0       0       0       0
  5087 ;;      Totals:         2       0       0       0       0
  5088 ;;Total ram usage:        2 bytes
  5089 ;; Hardware stack levels used: 1
  5090 ;; Hardware stack levels required when called: 2
  5091 ;; This function calls:
  5092 ;;		_clcd_write
  5093 ;; This function is called by:
  5094 ;;		_power_on_screen
  5095 ;;		_display_menu_screen
  5096 ;;		_set_time
  5097 ;;		_time_display
  5098 ;;		_set_temp
  5099 ;;		_main
  5100 ;; This function uses a non-reentrant model
  5101 ;;
  5102                           
  5103     0E1C                     _clcd_print:	
  5104                           ;psect for function _clcd_print
  5105                           
  5106     0E1C                     l1515:	
  5107                           ;incstack = 0
  5108                           ; Regs used in _clcd_print: [wreg-fsr0h+status,2+status,0+pclath+cstack]
  5109                           
  5110                           
  5111                           ;clcd.c: 60: void clcd_print(const char *str, unsigned char addr);clcd.c: 61: {;clcd.c: 
      +                          62:     clcd_write(addr, 0);
  5112     0E1C  01F2               	clrf	clcd_write@mode
  5113     0E1D  0877               	movf	clcd_print@addr,w
  5114     0E1E  120A  158A  2666  120A  158A  	fcall	_clcd_write
  5115                           
  5116                           ;clcd.c: 64:     while (*str != '\0')
  5117     0E23  2E34               	goto	l1521
  5118     0E24                     l1517:
  5119                           
  5120                           ;clcd.c: 65:     {;clcd.c: 66:         clcd_write(*str, 1);
  5121     0E24  01F2               	clrf	clcd_write@mode
  5122     0E25  0AF2               	incf	clcd_write@mode,f
  5123     0E26  0876               	movf	clcd_print@str,w
  5124     0E27  0084               	movwf	4
  5125     0E28  120A  118A  2500  120A  158A  	fcall	stringdir
  5126     0E2D  120A  158A  2666  120A  158A  	fcall	_clcd_write
  5127     0E32                     l1519:
  5128                           
  5129                           ;clcd.c: 67:         str++;
  5130     0E32  3001               	movlw	1
  5131     0E33  07F6               	addwf	clcd_print@str,f
  5132     0E34                     l1521:
  5133                           
  5134                           ;clcd.c: 64:     while (*str != '\0')
  5135     0E34  0876               	movf	clcd_print@str,w
  5136     0E35  0084               	movwf	4
  5137     0E36  120A  118A  2500  120A  158A  	fcall	stringdir
  5138     0E3B  3A00               	xorlw	0
  5139     0E3C  1D03               	skipz
  5140     0E3D  2E3F               	goto	u811
  5141     0E3E  2E40               	goto	u810
  5142     0E3F                     u811:
  5143     0E3F  2E24               	goto	l1517
  5144     0E40                     u810:
  5145     0E40                     l186:
  5146     0E40  0008               	return
  5147     0E41                     __end_of_clcd_print:
  5148                           
  5149                           	psect	text23
  5150     0E66                     __ptext23:	
  5151 ;; *************** function _clcd_write *****************
  5152 ;; Defined at:
  5153 ;;		line 13 in file "clcd.c"
  5154 ;; Parameters:    Size  Location     Type
  5155 ;;  byte            1    wreg     unsigned char 
  5156 ;;  mode            1    2[COMMON] unsigned char 
  5157 ;; Auto vars:     Size  Location     Type
  5158 ;;  byte            1    5[COMMON] unsigned char 
  5159 ;; Return value:  Size  Location     Type
  5160 ;;                  1    wreg      void 
  5161 ;; Registers used:
  5162 ;;		wreg, status,2, status,0
  5163 ;; Tracked objects:
  5164 ;;		On entry : 0/0
  5165 ;;		On exit  : 0/0
  5166 ;;		Unchanged: 0/0
  5167 ;; Data sizes:     COMMON   BANK0   BANK1   BANK3   BANK2
  5168 ;;      Params:         1       0       0       0       0
  5169 ;;      Locals:         1       0       0       0       0
  5170 ;;      Temps:          2       0       0       0       0
  5171 ;;      Totals:         4       0       0       0       0
  5172 ;;Total ram usage:        4 bytes
  5173 ;; Hardware stack levels used: 1
  5174 ;; Hardware stack levels required when called: 1
  5175 ;; This function calls:
  5176 ;;		Nothing
  5177 ;; This function is called by:
  5178 ;;		_clear_screen
  5179 ;;		_init_display_controller
  5180 ;;		_clcd_putch
  5181 ;;		_clcd_print
  5182 ;; This function uses a non-reentrant model
  5183 ;;
  5184                           
  5185     0E66                     _clcd_write:	
  5186                           ;psect for function _clcd_write
  5187                           
  5188                           
  5189                           ;incstack = 0
  5190                           ; Regs used in _clcd_write: [wreg+status,2+status,0]
  5191                           ;clcd_write@byte stored from wreg
  5192     0E66  00F5               	movwf	clcd_write@byte
  5193     0E67                     l1469:
  5194                           
  5195                           ;clcd.c: 15:   RE2 =mode;
  5196     0E67  1872               	btfsc	clcd_write@mode,0
  5197     0E68  2E6A               	goto	u781
  5198     0E69  2E6E               	goto	u780
  5199     0E6A                     u781:
  5200     0E6A  1283               	bcf	3,5	;RP0=0, select bank0
  5201     0E6B  1303               	bcf	3,6	;RP1=0, select bank0
  5202     0E6C  1509               	bsf	9,2	;volatile
  5203     0E6D  2E71               	goto	u794
  5204     0E6E                     u780:
  5205     0E6E  1283               	bcf	3,5	;RP0=0, select bank0
  5206     0E6F  1303               	bcf	3,6	;RP1=0, select bank0
  5207     0E70  1109               	bcf	9,2	;volatile
  5208     0E71                     u794:
  5209     0E71                     l1471:
  5210                           
  5211                           ;clcd.c: 16:   PORTD= byte& 0xF0;
  5212     0E71  0875               	movf	clcd_write@byte,w
  5213     0E72  39F0               	andlw	240
  5214     0E73  0088               	movwf	8	;volatile
  5215     0E74                     l1473:
  5216                           
  5217                           ;clcd.c: 17:   RE1 =1;
  5218     0E74  1489               	bsf	9,1	;volatile
  5219     0E75                     l1475:
  5220                           
  5221                           ;clcd.c: 18:   _delay((unsigned long)((100)*(20000000/4000000.0)));
  5222     0E75  30A6               	movlw	166
  5223     0E76  00F3               	movwf	??_clcd_write
  5224     0E77                     u2747:
  5225     0E77  0BF3               	decfsz	??_clcd_write,f
  5226     0E78  2E77               	goto	u2747
  5227     0E79  0000               	nop
  5228     0E7A                     l1477:
  5229                           
  5230                           ;clcd.c: 19:   RE1=0;
  5231     0E7A  1283               	bcf	3,5	;RP0=0, select bank0
  5232     0E7B  1303               	bcf	3,6	;RP1=0, select bank0
  5233     0E7C  1089               	bcf	9,1	;volatile
  5234     0E7D                     l1479:
  5235                           
  5236                           ;clcd.c: 20:   PORTD =(byte & 0x0F) <<4;
  5237     0E7D  0875               	movf	clcd_write@byte,w
  5238     0E7E  390F               	andlw	15
  5239     0E7F  00F3               	movwf	??_clcd_write
  5240     0E80  3003               	movlw	3
  5241     0E81                     u805:
  5242     0E81  1003               	clrc
  5243     0E82  0DF3               	rlf	??_clcd_write,f
  5244     0E83  3EFF               	addlw	-1
  5245     0E84  1D03               	skipz
  5246     0E85  2E81               	goto	u805
  5247     0E86  1003               	clrc
  5248     0E87  0D73               	rlf	??_clcd_write,w
  5249     0E88  0088               	movwf	8	;volatile
  5250     0E89                     l1481:
  5251                           
  5252                           ;clcd.c: 21:   RE1= 1;
  5253     0E89  1489               	bsf	9,1	;volatile
  5254     0E8A                     l1483:
  5255                           
  5256                           ;clcd.c: 22:   _delay((unsigned long)((100)*(20000000/4000000.0)));
  5257     0E8A  30A6               	movlw	166
  5258     0E8B  00F3               	movwf	??_clcd_write
  5259     0E8C                     u2757:
  5260     0E8C  0BF3               	decfsz	??_clcd_write,f
  5261     0E8D  2E8C               	goto	u2757
  5262     0E8E  0000               	nop
  5263     0E8F                     l1485:
  5264                           
  5265                           ;clcd.c: 23:   RE1=0;
  5266     0E8F  1283               	bcf	3,5	;RP0=0, select bank0
  5267     0E90  1303               	bcf	3,6	;RP1=0, select bank0
  5268     0E91  1089               	bcf	9,1	;volatile
  5269     0E92                     l1487:
  5270                           
  5271                           ;clcd.c: 24:   _delay((unsigned long)((4100)*(20000000/4000000.0)));
  5272     0E92  301B               	movlw	27
  5273     0E93  00F4               	movwf	??_clcd_write+1
  5274     0E94  309E               	movlw	158
  5275     0E95  00F3               	movwf	??_clcd_write
  5276     0E96                     u2767:
  5277     0E96  0BF3               	decfsz	??_clcd_write,f
  5278     0E97  2E96               	goto	u2767
  5279     0E98  0BF4               	decfsz	??_clcd_write+1,f
  5280     0E99  2E96               	goto	u2767
  5281     0E9A  0000               	nop
  5282     0E9B                     l174:
  5283     0E9B  0008               	return
  5284     0E9C                     __end_of_clcd_write:
  5285                           
  5286                           	psect	text24
  5287     0ED6                     __ptext24:	
  5288 ;; *************** function _isr *****************
  5289 ;; Defined at:
  5290 ;;		line 13 in file "isr.c"
  5291 ;; Parameters:    Size  Location     Type
  5292 ;;		None
  5293 ;; Auto vars:     Size  Location     Type
  5294 ;;		None
  5295 ;; Return value:  Size  Location     Type
  5296 ;;                  1    wreg      void 
  5297 ;; Registers used:
  5298 ;;		wreg, status,2, status,0
  5299 ;; Tracked objects:
  5300 ;;		On entry : 0/0
  5301 ;;		On exit  : 0/0
  5302 ;;		Unchanged: 0/0
  5303 ;; Data sizes:     COMMON   BANK0   BANK1   BANK3   BANK2
  5304 ;;      Params:         0       0       0       0       0
  5305 ;;      Locals:         0       0       0       0       0
  5306 ;;      Temps:          2       0       0       0       0
  5307 ;;      Totals:         2       0       0       0       0
  5308 ;;Total ram usage:        2 bytes
  5309 ;; Hardware stack levels used: 1
  5310 ;; This function calls:
  5311 ;;		Nothing
  5312 ;; This function is called by:
  5313 ;;		Interrupt level 1
  5314 ;; This function uses a non-reentrant model
  5315 ;;
  5316                           
  5317     0ED6                     _isr:	
  5318                           ;psect for function _isr
  5319                           
  5320     0ED6                     i1l2065:
  5321                           
  5322                           ;isr.c: 14:     if(TMR2IF){
  5323     0ED6  1283               	bcf	3,5	;RP0=0, select bank0
  5324     0ED7  1303               	bcf	3,6	;RP1=0, select bank0
  5325     0ED8  1C8C               	btfss	12,1	;volatile
  5326     0ED9  2EDB               	goto	u158_21
  5327     0EDA  2EDC               	goto	u158_20
  5328     0EDB                     u158_21:
  5329     0EDB  2F11               	goto	i1l327
  5330     0EDC                     u158_20:
  5331     0EDC                     i1l2067:
  5332                           
  5333                           ;isr.c: 15:         if(++count == 20000)
  5334     0EDC  3001               	movlw	1
  5335     0EDD  07F9               	addwf	_count,f
  5336     0EDE  1803               	skipnc
  5337     0EDF  0AFA               	incf	_count+1,f
  5338     0EE0  3000               	movlw	0
  5339     0EE1  07FA               	addwf	_count+1,f
  5340     0EE2  3020               	movlw	32
  5341     0EE3  0679               	xorwf	_count,w
  5342     0EE4  304E               	movlw	78
  5343     0EE5  1903               	skipnz
  5344     0EE6  067A               	xorwf	_count+1,w
  5345     0EE7  1D03               	btfss	3,2
  5346     0EE8  2EEA               	goto	u159_21
  5347     0EE9  2EEB               	goto	u159_20
  5348     0EEA                     u159_21:
  5349     0EEA  2F10               	goto	i1l2087
  5350     0EEB                     u159_20:
  5351     0EEB                     i1l2069:
  5352                           
  5353                           ;isr.c: 16:         {;isr.c: 17:             count = 0;
  5354     0EEB  01F9               	clrf	_count
  5355     0EEC  01FA               	clrf	_count+1
  5356     0EED                     i1l2071:
  5357                           
  5358                           ;isr.c: 19:             if(sec !=0){
  5359     0EED  0839               	movf	_sec,w
  5360     0EEE  1903               	btfsc	3,2
  5361     0EEF  2EF1               	goto	u160_21
  5362     0EF0  2EF2               	goto	u160_20
  5363     0EF1                     u160_21:
  5364     0EF1  2EF5               	goto	i1l2075
  5365     0EF2                     u160_20:
  5366     0EF2                     i1l2073:
  5367                           
  5368                           ;isr.c: 20:                 sec--;
  5369     0EF2  3001               	movlw	1
  5370     0EF3  02B9               	subwf	_sec,f
  5371                           
  5372                           ;isr.c: 21:             }
  5373     0EF4  2F10               	goto	i1l2087
  5374     0EF5                     i1l2075:
  5375     0EF5  0839               	movf	_sec,w
  5376     0EF6  1D03               	btfss	3,2
  5377     0EF7  2EF9               	goto	u161_21
  5378     0EF8  2EFA               	goto	u161_20
  5379     0EF9                     u161_21:
  5380     0EF9  2F03               	goto	i1l2083
  5381     0EFA                     u161_20:
  5382     0EFA                     i1l2077:
  5383     0EFA  083A               	movf	_min,w
  5384     0EFB  1903               	btfsc	3,2
  5385     0EFC  2EFE               	goto	u162_21
  5386     0EFD  2EFF               	goto	u162_20
  5387     0EFE                     u162_21:
  5388     0EFE  2F03               	goto	i1l2083
  5389     0EFF                     u162_20:
  5390     0EFF                     i1l2079:
  5391                           
  5392                           ;isr.c: 23:                 min = 0;
  5393     0EFF  01BA               	clrf	_min
  5394     0F00                     i1l2081:
  5395                           
  5396                           ;isr.c: 24:                 sec = 60;
  5397     0F00  303C               	movlw	60
  5398     0F01  00B9               	movwf	_sec
  5399                           
  5400                           ;isr.c: 25:             }
  5401     0F02  2F10               	goto	i1l2087
  5402     0F03                     i1l2083:
  5403     0F03  0833               	movf	_pre_heat_time,w
  5404     0F04  0434               	iorwf	_pre_heat_time+1,w
  5405     0F05  1903               	btfsc	3,2
  5406     0F06  2F08               	goto	u163_21
  5407     0F07  2F09               	goto	u163_20
  5408     0F08                     u163_21:
  5409     0F08  2F10               	goto	i1l323
  5410     0F09                     u163_20:
  5411     0F09                     i1l2085:
  5412                           
  5413                           ;isr.c: 28:                 pre_heat_time--;
  5414     0F09  3001               	movlw	1
  5415     0F0A  02B3               	subwf	_pre_heat_time,f
  5416     0F0B  3000               	movlw	0
  5417     0F0C  1C03               	skipc
  5418     0F0D  03B4               	decf	_pre_heat_time+1,f
  5419     0F0E  02B4               	subwf	_pre_heat_time+1,f
  5420     0F0F  2F10               	goto	i1l2087
  5421     0F10                     i1l323:
  5422     0F10                     i1l2087:
  5423                           
  5424                           ;isr.c: 33:         TMR2IF = 0;
  5425     0F10  108C               	bcf	12,1	;volatile
  5426     0F11                     i1l327:
  5427     0F11  0871               	movf	??_isr+1,w
  5428     0F12  008A               	movwf	10
  5429     0F13  0E70               	swapf	??_isr,w
  5430     0F14  0083               	movwf	3
  5431     0F15  0EFE               	swapf	btemp,f
  5432     0F16  0E7E               	swapf	btemp,w
  5433     0F17  0009               	retfie
  5434     0F18                     __end_of_isr:
  5435     0002                     ___latbits      equ	2
  5436     007E                     btemp           set	126	;btemp
  5437     007E                     wtemp0          set	126
  5438                           
  5439                           	psect	intentry
  5440     0004                     __pintentry:	
  5441                           ;incstack = 0
  5442                           ; Regs used in _isr: [wreg+status,2+status,0]
  5443                           
  5444     0004                     interrupt_function:
  5445     007E                     saved_w         set	btemp
  5446     0004  00FE               	movwf	btemp
  5447     0005  0E03               	swapf	3,w
  5448     0006  00F0               	movwf	??_isr
  5449     0007  080A               	movf	10,w
  5450     0008  00F1               	movwf	??_isr+1
  5451     0009  120A  158A  2ED6   	ljmp	_isr

Data Sizes:
    Strings     229
    Constant    0
    Data        2
    BSS         12
    Persistent  0
    Stack       0

Auto Spaces:
    Space          Size  Autos    Used
    COMMON           14      9      12
    BANK0            80     17      28
    BANK1            80      0       0
    BANK3            96      0       0
    BANK2            96      0       0

Pointer List with Targets:

    clcd_print@str	PTR const unsigned char  size(1) Largest target is 17
		 -> STR_1(CODE[12]), STR_10(CODE[8]), STR_11(CODE[15]), STR_12(CODE[8]), 
		 -> STR_13(CODE[7]), STR_14(CODE[11]), STR_15(CODE[16]), STR_16(CODE[14]), 
		 -> STR_17(CODE[7]), STR_18(CODE[17]), STR_19(CODE[13]), STR_2(CODE[15]), 
		 -> STR_20(CODE[10]), STR_21(CODE[4]), STR_22(CODE[11]), STR_3(CODE[9]), 
		 -> STR_4(CODE[8]), STR_5(CODE[13]), STR_6(CODE[8]), STR_7(CODE[16]), 
		 -> STR_8(CODE[7]), STR_9(CODE[17]), 


Critical Paths under _main in COMMON

    _main->_clear_screen
    _time_display->_clear_screen
    _set_time->_clear_screen
    _set_temp->___lwdiv
    _set_temp->_clear_screen
    _clear_screen->_clcd_write
    ___lwmod->___lwdiv
    _read_matrix_keypad->_scan_keypad
    _clcd_putch->___lwdiv
    _init_clcd->_init_display_controller
    _init_display_controller->_clcd_write
    _display_menu_screen->_clcd_print
    _clcd_print->_clcd_write

Critical Paths under _isr in COMMON

    None.

Critical Paths under _main in BANK0

    _main->_set_time
    _time_display->_clcd_putch
    _set_time->_clcd_putch
    _set_temp->_clcd_putch
    _power_on_screen->_clcd_putch
    _clcd_putch->___lwmod

Critical Paths under _isr in BANK0

    None.

Critical Paths under _main in BANK1

    None.

Critical Paths under _isr in BANK1

    None.

Critical Paths under _main in BANK3

    None.

Critical Paths under _isr in BANK3

    None.

Critical Paths under _main in BANK2

    None.

Critical Paths under _isr in BANK2

    None.

Call Graph Tables:

 ---------------------------------------------------------------------------------
 (Depth) Function   	        Calls       Base Space   Used Autos Params    Refs
 ---------------------------------------------------------------------------------
 (0) _main                                                 5     5      0    5013
                                             12 BANK0      5     5      0
                         _clcd_print
                       _clear_screen
                _display_menu_screen
                          _heat_food
                        _init_config
                    _power_on_screen
                 _read_matrix_keypad
                           _set_temp
                           _set_time
                       _time_display
 ---------------------------------------------------------------------------------
 (1) _time_display                                         3     3      0     580
                                              7 BANK0      3     3      0
                            ___awdiv
                            ___awmod
                         _clcd_print
                         _clcd_putch
                       _clear_screen
 ---------------------------------------------------------------------------------
 (1) _set_time                                             5     4      1    1189
                                              7 BANK0      5     4      1
                            ___awdiv
                            ___awmod
                             ___bmul
                         _clcd_print
                         _clcd_putch
                       _clear_screen
 ---------------------------------------------------------------------------------
 (2) ___bmul                                               3     2      1       6
                                              2 COMMON     3     2      1
 ---------------------------------------------------------------------------------
 (2) ___awmod                                              6     2      4      21
                                              2 COMMON     6     2      4
 ---------------------------------------------------------------------------------
 (2) ___awdiv                                              8     4      4      90
                                              2 COMMON     4     0      4
                                              0 BANK0      4     4      0
 ---------------------------------------------------------------------------------
 (1) _set_temp                                             4     3      1    1391
                                              7 BANK0      4     3      1
                            ___lwdiv
                            ___lwmod
                             ___wmul
                         _clcd_print
                         _clcd_putch
                       _clear_screen
 ---------------------------------------------------------------------------------
 (2) _clear_screen                                         3     3      0      92
                                              6 COMMON     3     3      0
                         _clcd_write
 ---------------------------------------------------------------------------------
 (2) ___wmul                                               6     2      4      94
                                              2 COMMON     6     2      4
 ---------------------------------------------------------------------------------
 (2) ___lwmod                                              5     1      4     262
                                              0 BANK0      5     1      4
                            ___lwdiv (ARG)
 ---------------------------------------------------------------------------------
 (2) ___lwdiv                                              7     3      4     176
                                              2 COMMON     7     3      4
 ---------------------------------------------------------------------------------
 (1) _read_matrix_keypad                                   2     2      0     210
                                              4 COMMON     2     2      0
                        _scan_keypad
 ---------------------------------------------------------------------------------
 (2) _scan_keypad                                          2     2      0      92
                                              2 COMMON     2     2      0
 ---------------------------------------------------------------------------------
 (1) _power_on_screen                                      4     4      0     513
                                              7 BANK0      4     4      0
                         _clcd_print
                         _clcd_putch
 ---------------------------------------------------------------------------------
 (2) _clcd_putch                                           2     1      1     174
                                              5 BANK0      2     1      1
                            ___awdiv (ARG)
                            ___awmod (ARG)
                            ___lwdiv (ARG)
                            ___lwmod (ARG)
                         _clcd_write
 ---------------------------------------------------------------------------------
 (1) _init_config                                          0     0      0      92
                          _init_clcd
                 _init_matrix_keypad
                        _init_timer2
 ---------------------------------------------------------------------------------
 (2) _init_timer2                                          0     0      0       0
 ---------------------------------------------------------------------------------
 (2) _init_matrix_keypad                                   0     0      0       0
 ---------------------------------------------------------------------------------
 (2) _init_clcd                                            0     0      0      92
            _init_display_controller
 ---------------------------------------------------------------------------------
 (3) _init_display_controller                              2     2      0      92
                                              6 COMMON     2     2      0
                         _clcd_write
 ---------------------------------------------------------------------------------
 (1) _heat_food                                            0     0      0       0
 ---------------------------------------------------------------------------------
 (1) _display_menu_screen                                  0     0      0     203
                         _clcd_print
 ---------------------------------------------------------------------------------
 (2) _clcd_print                                           2     0      2     203
                                              6 COMMON     2     0      2
                         _clcd_write
 ---------------------------------------------------------------------------------
 (3) _clcd_write                                           4     3      1      92
                                              2 COMMON     4     3      1
 ---------------------------------------------------------------------------------
 Estimated maximum stack depth 3
 ---------------------------------------------------------------------------------
 (Depth) Function   	        Calls       Base Space   Used Autos Params    Refs
 ---------------------------------------------------------------------------------
 (5) _isr                                                  2     2      0       0
                                              0 COMMON     2     2      0
 ---------------------------------------------------------------------------------
 Estimated maximum stack depth 5
 ---------------------------------------------------------------------------------

 Call Graph Graphs:

 _main (ROOT)
   _clcd_print
     _clcd_write
   _clear_screen
     _clcd_write
   _display_menu_screen
     _clcd_print
   _heat_food
   _init_config
     _init_clcd
       _init_display_controller
         _clcd_write
     _init_matrix_keypad
     _init_timer2
   _power_on_screen
     _clcd_print
     _clcd_putch
       ___awdiv (ARG)
       ___awmod (ARG)
       ___lwdiv (ARG)
       ___lwmod (ARG)
         ___lwdiv (ARG)
       _clcd_write (ARG)
   _read_matrix_keypad
     _scan_keypad
   _set_temp
     ___lwdiv
     ___lwmod
     ___wmul
     _clcd_print
     _clcd_putch
     _clear_screen
   _set_time
     ___awdiv
     ___awmod
     ___bmul
     _clcd_print
     _clcd_putch
     _clear_screen
   _time_display
     ___awdiv
     ___awmod
     _clcd_print
     _clcd_putch
     _clear_screen

 _isr (ROOT)

Address spaces:
Name               Size   Autos  Total    Usage
BANK3               96      0       0      0.0%
BITBANK3            96      0       0      0.0%
BANK2               96      0       0      0.0%
BITBANK2            96      0       0      0.0%
BANK1               80      0       0      0.0%
BITBANK1            80      0       0      0.0%
BANK0               80     17      28     35.0%
BITBANK0            80      0       0      0.0%
COMMON              14      9      12     85.7%
BITCOMMON           14      0       0      0.0%
DATA                 0      0      40      0.0%
STACK                0      0       0      0.0%


Microchip Technology PIC Macro Assembler V3.00 build 20241204225717 
Symbol Table                                                                                   Mon Feb 24 18:47:01 2025

                              pc 0002                   ___bmul@product 0073                   clcd_print@addr 0077  
                             l32 0DDA                               l35 0E65                               l29 0FA8  
                             l62 06C3                               l65 0D6D                               l58 0363  
                             l85 01AE                               l89 022F                     ___awdiv@sign 0021  
                             fsr 0004              ___wmul@multiplicand 0074               _init_matrix_keypad 0D7B  
                            l112 0D8A                              l120 06F0                              l121 06EA  
                            l117 06DC                              l142 075A                              l134 0730  
                            l126 0706                              l118 06E4                              l143 0762  
                            l135 0738                              l127 070E                              l119 076F  
                            l136 0744                              l128 071A                              l305 0D9D  
                            l145 0768                              l137 073E                              l129 0714  
                            l153 0E1B                              l180 0DC5                              l413 07E1  
                            l174 0E9B                              l246 0DF8                              l254 03DD  
                            l415 07F9                              l177 04F6                              l186 0E40  
                            l268 0422                              l189 0D7A                              l277 0447  
                            l278 044A                              l703 0ED5                              l439 0DB0  
                            l566 07D4                              l579 0FFF                              l693 0F59  
                            _GIE 005F                              _RB0 0030                              _RB1 0031  
                            _RB2 0032                              _RC1 0039                              _RC2 003A  
                            _RD0 0040                              _RD1 0041                              _RD2 0042  
                            _RD3 0043                              _RE1 0049                              _RE2 004A  
                            _PR2 0092                              u810 0E40                              u811 0E3F  
                            u900 0730                              u820 06DC                              u805 0E81  
                            u901 072F                              u821 06DB                              u910 0736  
                            u830 06E2                              u911 0735                              u831 06E1  
                            u920 073C                              u840 06E8                              u921 073B  
                            u841 06E7                              u930 0742                              u850 06EE  
                            u931 0741                              u851 06ED                              u780 0E6E  
                            u940 075A                              u860 0706                              u781 0E6A  
                            u941 0759                              u861 0705                              u950 0760  
                            u870 070C                              u951 075F                              u871 070B  
                            u960 0766                              u880 0712                              u961 0765  
                            u881 0711                              u794 0E71                              u970 076C  
                            u890 0718                              u971 076B                              u891 0717  
                            u980 07DB                              u981 07DA                              u995 07E2  
                            _min 003A                              _sec 0039                              _isr 0ED6  
                 clcd_putch@addr 0025                              fsr0 0004                   clcd_putch@data 0026  
                   ___awmod@sign 0077              ?_init_matrix_keypad 0070                             l2201 0ECB  
                           l2203 0ED1                             l1501 04C2                             l1511 04F1  
                           l1503 04C9                             l2311 0035                             l2151 0FAE  
                           l1521 0E34                             l1505 04D5                             l1513 0DB4  
                           l1601 0748                             l2321 005D                             l2313 0038  
                           l2161 0FC4                             l2153 0FB3                             l1515 0E1C  
                           l1507 04DA                             l1531 0D84                             l1611 0766  
                           l1603 074C                             l1523 0DC6                             l2331 00D5  
                           l2323 0067                             l2315 0041                             l2307 002E  
                           l2171 0FDE                             l2163 0FC7                             l2155 0FB5  
                           l2147 0FA9                             l2091 0DA0                             l1517 0E24  
                           l1509 04EA                             l1533 0D87                             l1621 076E  
                           l1605 0760                             l1541 06CA                             l1525 0DCD  
                           l2341 0105                             l2333 00DD                             l2325 0071  
                           l2317 004A                             l2309 0033                             l2501 078B  
                           l2181 0FFB                             l2173 0FE4                             l2165 0FCE  
                           l2157 0FB9                             l2149 0FAA                             l2093 0DA4  
                           l1471 0E71                             l1519 0E32                             l1631 0D75  
                           l1535 0D88                             l1527 0D7B                             l1711 0F8A  
                           l1703 0F5E                             l1551 06E8                             l1543 06CE  
                           l2191 0EAE                             l2351 0121                             l2335 00E3  
                           l2343 0108                             l2327 0075                             l2319 0053  
                           l2511 07A1                             l2503 0791                             l2175 0FEB  
                           l2167 0FD0                             l2159 0FBE                             l2095 0DA6  
                           l1481 0E89                             l1473 0E74                             l1625 0D6E  
                           l1537 0D89                             l1529 0D83                             l1633 0D8B  
                           l1721 0F9F                             l1705 0F67                             l1617 076C  
                           l1561 06F4                             l1545 06E2                             l2193 0EB0  
                           l2185 0E9C                             l1641 07E8                             l2361 0145  
                           l2353 0125                             l2345 010E                             l2337 00E8  
                           l2329 007C                             l2513 07B2                             l2505 0794  
                           l2521 07C6                             l2169 0FD4                             l2177 0FF1  
                           l2097 0DA8                             l2089 0D9F                             l2601 066A  
                           l1483 0E8A                             l1475 0E75                             l1723 0E41  
                           l1491 049C                             l1627 0D73                             l1707 0F6F  
                           l1571 0712                             l1563 06F8                             l1539 06C4  
                           l1651 0F1A                             l2195 0EB4                             l2187 0EA4  
                           l1643 07EF                             l1635 07D5                             l2371 01CD  
                           l2363 014B                             l2355 012A                             l2347 0112  
                           l2339 00EE                             l2523 07CB                             l2515 07B8  
                           l2507 079B                             l2179 0FF6                             l2099 0DAF  
                           l2531 0238                             l2611 0691                             l2603 0673  
                           l1485 0E8F                             l1477 0E7A                             l1469 0E67  
                           l1493 04A3                             l1629 0D74                             l1717 0F8E  
                           l1709 0F78                             l1581 071E                             l1565 070C  
                           l1557 06EE                             l1661 0F30                             l1653 0F20  
                           l2197 0EBE                             l2189 0EA7                             l1645 07F5  
                           l1637 07D7                             l2373 01D1                             l2365 014D  
                           l2357 0133                             l2349 0118                             l2525 07D0  
                           l2517 07B9                             l2509 079D                             l2541 0259  
                           l2533 023A                             l2621 06AC                             l2613 0696  
                           l2605 067C                             l2701 0411                             l1487 0E92  
                           l1479 0E7D                             l1831 0D64                             l1495 04B3  
                           l1719 0F97                             l1591 073C                             l1583 0722  
                           l1911 0DFA                             l1663 0F41                             l1655 0F23  
                           l1671 0F55                             l2199 0EC4                             l1639 07DB  
                           l2375 01D8                             l2367 01A6                             l2359 013C  
                           l2519 07C0                             l2551 0274                             l2543 0261  
                           l2535 023E                             l2623 06AF                             l2615 0699  
                           l2607 0685                             l2711 042C                             l2703 0417  
                           l2631 0367                             l1833 0D68                             l1497 04B8  
                           l1489 0494                             l1585 0736                             l1577 0718  
                           l1921 0E07                             l1913 0E00                             l1665 0F47  
                           l1657 0F2A                             l1649 0F18                             l2369 01B1  
                           l2553 0280                             l2545 0267                             l2561 0297  
                           l2537 0247                             l2529 0233                             l2625 06BE  
                           l2617 069A                             l2609 068C                             l2721 044E  
                           l2713 0432                             l2705 041D                             l2641 0385  
                           l2633 036C                             l1835 0D69                             l1499 04BF  
                           l1923 0E0C                             l1915 0E05                             l1667 0F48  
                           l1659 0F2C                             l2491 077C                             l2563 029D  
                           l2571 02A9                             l2555 0282                             l2547 026C  
                           l2539 0250                             l2627 06C1                             l2619 06A3  
                           l2723 0453                             l2715 0438                             l2707 0423  
                           l2643 0389                             l2651 03A7                             l2635 0375  
                           l1837 0D6A                             l1941 0DDB                             l1597 0742  
                           l1925 0E11                             l1933 0E13                             l1669 0F4F  
                           l2493 077E                             l2485 0770                             l2581 02D2  
                           l2573 02AF                             l2565 02A2                             l2557 0288  
                           l2549 026E                             l2725 0458                             l2717 0441  
                           l2709 0428                             l2733 0470                             l2653 03AD  
                           l2661 03BA                             l2645 038A                             l2637 037B  
                           l2629 0364                             l1839 0D6B                             l1951 0DF1  
                           l1943 0DE5                             l1935 0E18                             l2495 0782  
                           l2487 0773                             l2583 02E4                             l2575 02B3  
                           l2567 02A3                             l2559 0294                             l2591 05F4  
                           l2727 0461                             l2719 044C                             l2735 048D  
                           l2663 03C0                             l2671 03CB                             l2655 03B2  
                           l2647 0393                             l2639 0380                             l1953 0DF6  
                           l1945 0DE8                             l1697 0F5A                             l1937 0E1A  
                           l2497 0787                             l2489 0777                             l2585 02E8  
                           l2569 02A6                             l2577 02B8                             l2593 060F  
                           l2729 046A                             l2673 03D1                             l2665 03C5  
                           l2657 03B5                             l2649 03A1                             l2681 03DD  
                           l1955 0DF7                             l1947 0DEB                             l2499 0789  
                           l2587 02EF                             l2579 02BF                             l2595 062A  
                           l2691 03F9                             l2683 03E5                             l2675 03D6  
                           l2667 03C8                             l2659 03B7                             l1949 0DEE  
                           l2597 0634                             l2589 05EB                             l2685 03EB  
                           l2693 03FF                             l2677 03DA                             l2599 064F  
                           l2695 0405                             l2687 03F0                             l2697 0408  
                           l2689 03F3                             l2699 040E                             ?_isr 0070  
                           STR_1 057D                             STR_2 0546                             STR_3 05A9  
                           STR_4 05C2                             STR_5 0570                             STR_6 05CA  
                           STR_7 0517                             STR_8 05D2                             STR_9 0506  
                           u1010 07F5                             u1011 07F4                             u1020 0F20  
                           u1021 0F1F                             u1005 07E9                             u1040 0F30  
                           u1041 0F2F                             u1035 0F24                             u1060 0F41  
                           u2100 010E                             u1061 0F40                             u2101 010D  
                           u1150 0F78                             u2110 0118                             u1151 0F77  
                           u1055 0F31                             u2111 0117                             u1160 0FA8  
                           u1080 0F55                             u2120 0121                             u2040 0033  
                           u1161 0FA7                             u1081 0F54                             u1065 0F3D  
                           u2121 0120                             u2041 0032                             u1410 0E05  
                           u2130 01AE                             u2050 007C                             u1411 0E04  
                           u1075 0F49                             u2131 01AD                             u2051 007B  
                           u1420 0E0C                             u2140 01D8                             u2060 00DD  
                           u2300 0791                             u1421 0E0B                             u2141 01D7  
                           u2061 00DC                             u2301 0790                             u1430 0E11  
                           u2070 00E3                             u1431 0E10                             u2071 00E2  
                           u1440 0E18                             u2080 00E8                             u2320 07A1  
                           u2400 0267                             u1441 0E17                             u2081 00E7  
                           u2321 07A0                             u2401 0266                             u2090 00EE  
                           u2410 026C                             u2091 00ED                             u2315 0795  
                           u2411 026B                             u2340 07B2                             u2420 0274  
                           u2500 0691                             u2341 07B1                             u2421 0273  
                           u2501 0690                             u2430 0288                             u2510 037B  
                           u2335 07A2                             u2431 0287                             u2511 037A  
                           u2360 07C6                             u2280 0777                             u1800 0FD4  
                           u1640 0DA4                             u2440 029D                             u2600 0405  
                           u2520 0380                             u2361 07C5                             u2345 07AE  
                           u2281 0776                             u1801 0FD3                             u1641 0DA3  
                           u2441 029C                             u2601 0404                             u2521 037F  
                           u2370 07CB                             u2290 0782                             u1810 0FDE  
                           u1650 0DAF                             u2450 02A2                             u2610 040E  
                           u2530 03AD                             u2371 07CA                             u2355 07BA  
                           u2291 0781                             u1811 0FDD                             u1651 0DAE  
                           u2451 02A1                             u2611 040D                             u2531 03AC  
                           u1900 0ED1                             u2460 02AF                             u2380 0238  
                           u2620 0417                             u2540 03C0                             u1901 0ED0  
                           u2461 02AE                             u2381 0237                             u2621 0416  
                           u2541 03BF                             u1830 0FF1                             u2470 02BF  
                           u2390 0261                             u2630 041D                             u2550 03D1  
                           u1831 0FF0                             u1815 0FDA                             u2471 02BE  
                           u2391 0260                             u2631 041C                             u2551 03D0  
                           u1840 0FF6                             u1760 0FAE                             u2480 02EF  
                           u2560 03E5                             u1841 0FF5                             u1825 0FE5  
                           u1761 0FAD                             u2481 02EE                             u2561 03E4  
                           u1850 0EA4                             u1770 0FB9                             u2490 068C  
                           u2570 03EB                             u2707 04CB                             u1851 0EA3  
                           u1771 0FB8                             u2491 068B                             u2571 03EA  
                           u1780 0FC4                             u2580 03F0                             u2717 04D7  
                           u1781 0FC3                             u2581 03EF                             u1870 0EB4  
                           u2590 03F9                             u2727 04E5                             u1871 0EB3  
                           u2591 03F8                             u2647 039B                             u1880 0EBE  
                           u2737 04F3                             u1881 0EBD                             u1865 0EA8  
                           u2657 06B7                             u2747 0E77                             u2667 0DD3  
                           u1795 0FC8                             _PEIE 005E                             u2757 0E8C  
                           u2677 0498                             u1885 0EBA                             u2767 0E96  
                           u2687 04A7                             u1895 0EC5                             u2697 04B5  
                           _main 0364                             btemp 007E                             start 000C  
              ___bmul@multiplier 0074             ??_init_matrix_keypad 0072                   clcd_write@byte 0075  
                 clcd_write@mode 0072          __end_of_power_on_screen 0FA9                            ??_isr 0070  
                          ?_main 0070                  __end_of___awdiv 07D5                            STR_10 05B2  
                          STR_11 0537                            STR_12 05BA                            STR_20 059F  
                          STR_21 05E7                            STR_13 05E0                            STR_14 0594  
                          STR_22 0589                            STR_15 0527                            STR_16 0555  
                          STR_17 05D9                            STR_18 0506                            STR_19 0563  
                __end_of___awmod 1000                  ___awdiv@divisor 0072                  __end_of___lwdiv 0F5A  
                          i1l323 0F10                            i1l327 0F11                  __end_of___lwmod 0ED6  
                   ?_init_config 0070                  ___awdiv@counter 0020                            _PORTD 0008  
                          _TRISB 0086                            _TRISD 0088                     ?_init_timer2 0070  
           __end_of_clear_screen 0DDB                            _nRBPU 040F               _read_matrix_keypad 0DF9  
                          _count 0079                            pclath 000A              ?_read_matrix_keypad 0070  
                          status 0003                            wtemp0 007E                     ?_scan_keypad 0070  
                __initialization 000F                     __end_of_main 0494             ??_read_matrix_keypad 0074  
                         ??_main 002C                 ___awdiv@dividend 0074                           i1l2071 0EED  
                         i1l2081 0F00                           i1l2073 0EF2                           i1l2065 0ED6  
                         i1l2083 0F03                           i1l2075 0EF5                           i1l2067 0EDC  
                         i1l2085 0F09                           i1l2077 0EFA                           i1l2069 0EEB  
                         i1l2079 0EFF                           i1l2087 0F10                           u160_20 0EF2  
                         u160_21 0EF1                           u161_20 0EFA                           u161_21 0EF9  
                         u162_20 0EFF                           u162_21 0EFE                           u163_20 0F09  
                         u163_21 0F08                           u158_20 0EDC                           u158_21 0EDB  
                         u159_20 0EEB                           u159_21 0EEA                           _TMR2IE 0461  
                         _TMR2IF 0061                           _TMR2ON 0092                           _TRISC1 0439  
                         _TRISC2 043A                           _TRISE1 0449                           _TRISE2 044A  
                set_temp@wait_94 0029                           ___bmul 0D9E          _init_display_controller 0494  
                         ___wmul 07D5                        ??___awdiv 0076                 ?_power_on_screen 0070  
                      ??___awmod 0076                        ??___lwdiv 0076                        ??___lwmod 0079  
               ___awdiv@quotient 0022                  ___awmod@divisor 0072                  ___awmod@counter 0076  
                   __pdataCOMMON 007B                 __end_of_set_temp 0230                 __end_of_set_time 0364  
                         saved_w 007E          __end_of__initialization 0027              ___bmul@multiplicand 0072  
                 __pcstackCOMMON 0070                     __pidataBANK0 07FB      __end_of_display_menu_screen 0E66  
                     __pbssBANK0 0031        ??_init_display_controller 0076                       _clcd_print 0E1C  
                     _clcd_putch 0DB1                       _clcd_write 0E66                       __pmaintext 0364  
                   _clear_screen 0DC6                          ?___bmul 0072                          ?___wmul 0072  
                     __pintentry 0004                          _T2CKPS0 0090                          _T2CKPS1 0091  
                        _TOUTPS1 0094                          _TOUTPS2 0095                          _TOUTPS3 0096  
                     __stringtab 0500                __end_of_heat_food 0D6E                        ?_set_temp 0027  
                      ?_set_time 0027                          ___awdiv 0770                          ___awmod 0FA9  
                        ___lwdiv 0F18                          ___lwmod 0E9C                          __ptext1 05EB  
                        __ptext2 0230                          __ptext3 0D9E                          __ptext4 0FA9  
                        __ptext5 0770                          __ptext6 002B                          __ptext7 0DC6  
                        __ptext8 07D5                          __ptext9 0E9C  __end_of_init_display_controller 04F7  
              __end_of_init_clcd 0D7B                 ___awmod@dividend 0074                    ?_time_display 0070  
                        main@key 0030             end_of_initialization 0027                      set_temp@key 002A  
                    set_time@key 002B                      ?_clcd_print 0076                      ?_clcd_putch 0025  
                    ?_clcd_write 0072                       _reset_flag 0035                       ??_set_temp 0079  
                     ??_set_time 0028                   main@start_mode 002F                   ??_time_display 0027  
                  clcd_print@str 0076               set_temp@reset_flag 0027                   __end_of___bmul 0DB1  
                 __end_of___wmul 07FA                    __pidataCOMMON 07FA              start_initialization 000F  
                   scan_keypad@i 0072           read_matrix_keypad@mode 0074           read_matrix_keypad@once 007B  
                    __end_of_isr 0F18                         ??___bmul 0073                         ??___wmul 0076  
                    __pdataBANK0 003B                    ??_init_config 0078                    ??_init_timer2 0072  
                    __pbssCOMMON 0079                        ___latbits 0002                    __pcstackBANK0 0020  
                  ??_scan_keypad 0072                 ___lwdiv@dividend 0074             __end_of_time_display 06C4  
                       ?___awdiv 0072                         ?___awmod 0072                        _heat_food 0D64  
                       ?___lwdiv 0072                         ?___lwmod 0020                        __pstrings 0500  
             set_time@reset_flag 0027                    _pre_heat_time 0033                 ___lwdiv@quotient 0076  
                      _init_clcd 0D6E              __end_of_init_config 0DF9                ??_power_on_screen 0079  
            __end_of_init_timer2 0D9E         ?_init_display_controller 0070                interrupt_function 0004  
                 ___wmul@product 0076                     ??_clcd_print 0078                     ??_clcd_putch 0079  
     __end_of_init_matrix_keypad 0D8B                     ??_clcd_write 0073                set_temp@key_count 0036  
            __end_of_scan_keypad 0770                       ?_heat_food 0070                      __stringbase 0505  
              ___wmul@multiplier 0072               __end_of_clcd_print 0E41               __end_of_clcd_putch 0DC6  
             __end_of_clcd_write 0E9C                       ?_init_clcd 0070            read_matrix_keypad@key 0075  
              set_time@blink_pos 0038       __end_of_read_matrix_keypad 0E1C               __end_of__stringtab 0506  
              set_time@key_count 0037                      _init_config 0DDB                 _operational_flag 003B  
                    _init_timer2 0D8B                  ___lwdiv@divisor 0072              power_on_screen@i_57 0029  
                ___lwdiv@counter 0078                         __ptext10 0F18                         __ptext11 0DF9  
                       __ptext20 0D64                         __ptext12 06C4                         __ptext21 0E41  
                       __ptext13 0F5A                         __ptext22 0E1C                         __ptext14 0DB1  
                       __ptext23 0E66                         __ptext15 0DDB                         __ptext24 0ED6  
                       __ptext16 0D8B                         __ptext17 0D7B                         __ptext18 0D6E  
                       __ptext19 0494                      _scan_keypad 06C4                    ?_clear_screen 0070  
                       _set_temp 002B                         _set_time 0230                      ??_heat_food 0072  
            _display_menu_screen 0E41                     set_temp@temp 0031                     set_temp@wait 0028  
                   set_time@wait 002A                      ??_init_clcd 0078                     _time_display 05EB  
                       intlevel1 0000                 ___lwmod@dividend 0022             ?_display_menu_screen 0070  
                      stringcode 0500                   ??_clear_screen 0076                  _power_on_screen 0F5A  
                ___lwmod@divisor 0020                  ___lwmod@counter 0024                         stringdir 0500  
                       stringtab 0500                 power_on_screen@i 0027            ??_display_menu_screen 0078  
